Archive member included to satisfy reference by file (symbol)

/home/holy/vscode_remote_setup/glibc-build/libc_pic.a(check_fds.os)
                              /home/holy/vscode_remote_setup/glibc-build/elf/dl-allobjs.os (__libc_check_standard_fds)
/home/holy/vscode_remote_setup/glibc-build/libc_pic.a(errno.os)
                              /home/holy/vscode_remote_setup/glibc-build/libc_pic.a(check_fds.os) (__libc_errno)
/home/holy/vscode_remote_setup/glibc-build/libc_pic.a(setjmp.os)
                              /home/holy/vscode_remote_setup/glibc-build/elf/dl-allobjs.os (__sigsetjmp)
/home/holy/vscode_remote_setup/glibc-build/libc_pic.a(__longjmp.os)
                              /home/holy/vscode_remote_setup/glibc-build/elf/dl-allobjs.os (__longjmp)
/home/holy/vscode_remote_setup/glibc-build/libc_pic.a(scratch_buffer_set_array_size.os)
                              /home/holy/vscode_remote_setup/glibc-build/elf/dl-allobjs.os (__libc_scratch_buffer_set_array_size)
/home/holy/vscode_remote_setup/glibc-build/libc_pic.a(strchr.os)
                              /home/holy/vscode_remote_setup/glibc-build/elf/dl-allobjs.os (strchr)
/home/holy/vscode_remote_setup/glibc-build/libc_pic.a(strcmp.os)
                              /home/holy/vscode_remote_setup/glibc-build/elf/dl-allobjs.os (strcmp)
/home/holy/vscode_remote_setup/glibc-build/libc_pic.a(strcspn.os)
                              /home/holy/vscode_remote_setup/glibc-build/elf/dl-allobjs.os (strcspn)
/home/holy/vscode_remote_setup/glibc-build/libc_pic.a(strdup.os)
                              /home/holy/vscode_remote_setup/glibc-build/elf/dl-allobjs.os (__strdup)
/home/holy/vscode_remote_setup/glibc-build/libc_pic.a(strlen.os)
                              /home/holy/vscode_remote_setup/glibc-build/elf/dl-allobjs.os (strlen)
/home/holy/vscode_remote_setup/glibc-build/libc_pic.a(strnlen.os)
                              /home/holy/vscode_remote_setup/glibc-build/elf/dl-allobjs.os (strnlen)
/home/holy/vscode_remote_setup/glibc-build/libc_pic.a(strncmp.os)
                              /home/holy/vscode_remote_setup/glibc-build/elf/dl-allobjs.os (strncmp)
/home/holy/vscode_remote_setup/glibc-build/libc_pic.a(memchr.os)
                              /home/holy/vscode_remote_setup/glibc-build/elf/dl-allobjs.os (memchr)
/home/holy/vscode_remote_setup/glibc-build/libc_pic.a(memcmp.os)
                              /home/holy/vscode_remote_setup/glibc-build/elf/dl-allobjs.os (memcmp)
/home/holy/vscode_remote_setup/glibc-build/libc_pic.a(memmove.os)
                              /home/holy/vscode_remote_setup/glibc-build/elf/dl-allobjs.os (memmove)
/home/holy/vscode_remote_setup/glibc-build/libc_pic.a(memset.os)
                              /home/holy/vscode_remote_setup/glibc-build/elf/dl-allobjs.os (memset)
/home/holy/vscode_remote_setup/glibc-build/libc_pic.a(mempcpy.os)
                              /home/holy/vscode_remote_setup/glibc-build/elf/dl-allobjs.os (__mempcpy)
/home/holy/vscode_remote_setup/glibc-build/libc_pic.a(stpcpy.os)
                              /home/holy/vscode_remote_setup/glibc-build/elf/dl-allobjs.os (__stpcpy)
/home/holy/vscode_remote_setup/glibc-build/libc_pic.a(memcpy.os)
                              /home/holy/vscode_remote_setup/glibc-build/libc_pic.a(check_fds.os) (__GI_memcpy)
/home/holy/vscode_remote_setup/glibc-build/libc_pic.a(rawmemchr.os)
                              /home/holy/vscode_remote_setup/glibc-build/elf/dl-allobjs.os (rawmemchr)
/home/holy/vscode_remote_setup/glibc-build/libc_pic.a(strcmp-sse2.os)
                              /home/holy/vscode_remote_setup/glibc-build/libc_pic.a(strcmp.os) (__strcmp_sse2)
/home/holy/vscode_remote_setup/glibc-build/libc_pic.a(strcmp-sse2-unaligned.os)
                              /home/holy/vscode_remote_setup/glibc-build/libc_pic.a(strcmp.os) (__strcmp_sse2_unaligned)
/home/holy/vscode_remote_setup/glibc-build/libc_pic.a(strcmp-ssse3.os)
                              /home/holy/vscode_remote_setup/glibc-build/libc_pic.a(strcmp.os) (__strcmp_ssse3)
/home/holy/vscode_remote_setup/glibc-build/libc_pic.a(strcmp-avx2.os)
                              /home/holy/vscode_remote_setup/glibc-build/libc_pic.a(strcmp.os) (__strcmp_avx2)
/home/holy/vscode_remote_setup/glibc-build/libc_pic.a(strncmp-sse2.os)
                              /home/holy/vscode_remote_setup/glibc-build/libc_pic.a(strncmp.os) (__strncmp_sse2)
/home/holy/vscode_remote_setup/glibc-build/libc_pic.a(strncmp-ssse3.os)
                              /home/holy/vscode_remote_setup/glibc-build/libc_pic.a(strncmp.os) (__strncmp_ssse3)
/home/holy/vscode_remote_setup/glibc-build/libc_pic.a(strncmp-sse4_2.os)
                              /home/holy/vscode_remote_setup/glibc-build/libc_pic.a(strncmp.os) (__strncmp_sse42)
/home/holy/vscode_remote_setup/glibc-build/libc_pic.a(strncmp-avx2.os)
                              /home/holy/vscode_remote_setup/glibc-build/libc_pic.a(strncmp.os) (__strncmp_avx2)
/home/holy/vscode_remote_setup/glibc-build/libc_pic.a(memchr-sse2.os)
                              /home/holy/vscode_remote_setup/glibc-build/libc_pic.a(memchr.os) (__memchr_sse2)
/home/holy/vscode_remote_setup/glibc-build/libc_pic.a(rawmemchr-sse2.os)
                              /home/holy/vscode_remote_setup/glibc-build/libc_pic.a(rawmemchr.os) (__rawmemchr_sse2)
/home/holy/vscode_remote_setup/glibc-build/libc_pic.a(memchr-avx2.os)
                              /home/holy/vscode_remote_setup/glibc-build/libc_pic.a(memchr.os) (__memchr_avx2)
/home/holy/vscode_remote_setup/glibc-build/libc_pic.a(rawmemchr-avx2.os)
                              /home/holy/vscode_remote_setup/glibc-build/libc_pic.a(rawmemchr.os) (__rawmemchr_avx2)
/home/holy/vscode_remote_setup/glibc-build/libc_pic.a(memcmp-sse2.os)
                              /home/holy/vscode_remote_setup/glibc-build/libc_pic.a(memcmp.os) (__memcmp_sse2)
/home/holy/vscode_remote_setup/glibc-build/libc_pic.a(memcmp-avx2-movbe.os)
                              /home/holy/vscode_remote_setup/glibc-build/libc_pic.a(memcmp.os) (__memcmp_avx2_movbe)
/home/holy/vscode_remote_setup/glibc-build/libc_pic.a(memcmp-sse4.os)
                              /home/holy/vscode_remote_setup/glibc-build/libc_pic.a(memcmp.os) (__memcmp_sse4_1)
/home/holy/vscode_remote_setup/glibc-build/libc_pic.a(memcpy-ssse3.os)
                              /home/holy/vscode_remote_setup/glibc-build/libc_pic.a(mempcpy.os) (__mempcpy_ssse3)
/home/holy/vscode_remote_setup/glibc-build/libc_pic.a(memmove-ssse3.os)
                              /home/holy/vscode_remote_setup/glibc-build/libc_pic.a(memmove.os) (__memmove_ssse3)
/home/holy/vscode_remote_setup/glibc-build/libc_pic.a(memcpy-ssse3-back.os)
                              /home/holy/vscode_remote_setup/glibc-build/libc_pic.a(mempcpy.os) (__mempcpy_ssse3_back)
/home/holy/vscode_remote_setup/glibc-build/libc_pic.a(memmove-ssse3-back.os)
                              /home/holy/vscode_remote_setup/glibc-build/libc_pic.a(memmove.os) (__memmove_ssse3_back)
/home/holy/vscode_remote_setup/glibc-build/libc_pic.a(memmove-avx512-no-vzeroupper.os)
                              /home/holy/vscode_remote_setup/glibc-build/libc_pic.a(mempcpy.os) (__mempcpy_avx512_no_vzeroupper)
/home/holy/vscode_remote_setup/glibc-build/libc_pic.a(strchr-sse2.os)
                              /home/holy/vscode_remote_setup/glibc-build/libc_pic.a(strchr.os) (__strchr_sse2)
/home/holy/vscode_remote_setup/glibc-build/libc_pic.a(strchr-avx2.os)
                              /home/holy/vscode_remote_setup/glibc-build/libc_pic.a(strchr.os) (__strchr_avx2)
/home/holy/vscode_remote_setup/glibc-build/libc_pic.a(strlen-sse2.os)
                              /home/holy/vscode_remote_setup/glibc-build/libc_pic.a(strlen.os) (__strlen_sse2)
/home/holy/vscode_remote_setup/glibc-build/libc_pic.a(strnlen-sse2.os)
                              /home/holy/vscode_remote_setup/glibc-build/libc_pic.a(strnlen.os) (__strnlen_sse2)
/home/holy/vscode_remote_setup/glibc-build/libc_pic.a(strlen-avx2.os)
                              /home/holy/vscode_remote_setup/glibc-build/libc_pic.a(strlen.os) (__strlen_avx2)
/home/holy/vscode_remote_setup/glibc-build/libc_pic.a(strnlen-avx2.os)
                              /home/holy/vscode_remote_setup/glibc-build/libc_pic.a(strnlen.os) (__strnlen_avx2)
/home/holy/vscode_remote_setup/glibc-build/libc_pic.a(stpcpy-sse2.os)
                              /home/holy/vscode_remote_setup/glibc-build/libc_pic.a(stpcpy.os) (__stpcpy_sse2)
/home/holy/vscode_remote_setup/glibc-build/libc_pic.a(stpcpy-ssse3.os)
                              /home/holy/vscode_remote_setup/glibc-build/libc_pic.a(stpcpy.os) (__stpcpy_ssse3)
/home/holy/vscode_remote_setup/glibc-build/libc_pic.a(stpcpy-sse2-unaligned.os)
                              /home/holy/vscode_remote_setup/glibc-build/libc_pic.a(stpcpy.os) (__stpcpy_sse2_unaligned)
/home/holy/vscode_remote_setup/glibc-build/libc_pic.a(strchr-sse2-no-bsf.os)
                              /home/holy/vscode_remote_setup/glibc-build/libc_pic.a(strchr.os) (__strchr_sse2_no_bsf)
/home/holy/vscode_remote_setup/glibc-build/libc_pic.a(memcmp-ssse3.os)
                              /home/holy/vscode_remote_setup/glibc-build/libc_pic.a(memcmp.os) (__memcmp_ssse3)
/home/holy/vscode_remote_setup/glibc-build/libc_pic.a(strcspn-sse2.os)
                              /home/holy/vscode_remote_setup/glibc-build/libc_pic.a(strcspn.os) (__strcspn_sse2)
/home/holy/vscode_remote_setup/glibc-build/libc_pic.a(strcspn-c.os)
                              /home/holy/vscode_remote_setup/glibc-build/libc_pic.a(strcspn.os) (__strcspn_sse42)
/home/holy/vscode_remote_setup/glibc-build/libc_pic.a(varshift.os)
                              /home/holy/vscode_remote_setup/glibc-build/libc_pic.a(strcspn-c.os) (___m128i_shift_right)
/home/holy/vscode_remote_setup/glibc-build/libc_pic.a(memset-avx512-no-vzeroupper.os)
                              /home/holy/vscode_remote_setup/glibc-build/libc_pic.a(memset.os) (__memset_avx512_no_vzeroupper)
/home/holy/vscode_remote_setup/glibc-build/libc_pic.a(memmove-sse2-unaligned-erms.os)
                              /home/holy/vscode_remote_setup/glibc-build/libc_pic.a(mempcpy.os) (__mempcpy_sse2_unaligned)
/home/holy/vscode_remote_setup/glibc-build/libc_pic.a(memmove-avx-unaligned-erms.os)
                              /home/holy/vscode_remote_setup/glibc-build/libc_pic.a(mempcpy.os) (__mempcpy_avx_unaligned)
/home/holy/vscode_remote_setup/glibc-build/libc_pic.a(memmove-avx512-unaligned-erms.os)
                              /home/holy/vscode_remote_setup/glibc-build/libc_pic.a(mempcpy.os) (__mempcpy_avx512_unaligned)
/home/holy/vscode_remote_setup/glibc-build/libc_pic.a(memset-sse2-unaligned-erms.os)
                              /home/holy/vscode_remote_setup/glibc-build/libc_pic.a(memset.os) (__memset_sse2_unaligned)
/home/holy/vscode_remote_setup/glibc-build/libc_pic.a(memset-avx2-unaligned-erms.os)
                              /home/holy/vscode_remote_setup/glibc-build/libc_pic.a(memset.os) (__memset_avx2_unaligned)
/home/holy/vscode_remote_setup/glibc-build/libc_pic.a(memset-avx512-unaligned-erms.os)
                              /home/holy/vscode_remote_setup/glibc-build/libc_pic.a(memset.os) (__memset_avx512_unaligned)
/home/holy/vscode_remote_setup/glibc-build/libc_pic.a(cacheinfo.os)
                              /home/holy/vscode_remote_setup/glibc-build/libc_pic.a(memcpy-ssse3-back.os) (__x86_data_cache_size)
/home/holy/vscode_remote_setup/glibc-build/libc_pic.a(closedir.os)
                              /home/holy/vscode_remote_setup/glibc-build/elf/dl-allobjs.os (__closedir)
/home/holy/vscode_remote_setup/glibc-build/libc_pic.a(rewinddir.os)
                              /home/holy/vscode_remote_setup/glibc-build/elf/dl-allobjs.os (__rewinddir)
/home/holy/vscode_remote_setup/glibc-build/libc_pic.a(readdir64.os)
                              /home/holy/vscode_remote_setup/glibc-build/elf/dl-allobjs.os (__readdir)
/home/holy/vscode_remote_setup/glibc-build/libc_pic.a(fdopendir.os)
                              /home/holy/vscode_remote_setup/glibc-build/elf/dl-allobjs.os (__fdopendir)
/home/holy/vscode_remote_setup/glibc-build/libc_pic.a(uname.os)
                              /home/holy/vscode_remote_setup/glibc-build/elf/dl-allobjs.os (__uname)
/home/holy/vscode_remote_setup/glibc-build/libc_pic.a(_exit.os)
                              /home/holy/vscode_remote_setup/glibc-build/elf/dl-allobjs.os (__GI__exit)
/home/holy/vscode_remote_setup/glibc-build/libc_pic.a(getpid.os)
                              /home/holy/vscode_remote_setup/glibc-build/elf/dl-allobjs.os (__getpid)
/home/holy/vscode_remote_setup/glibc-build/libc_pic.a(environ.os)
                              /home/holy/vscode_remote_setup/glibc-build/elf/dl-allobjs.os (__environ)
/home/holy/vscode_remote_setup/glibc-build/libc_pic.a(xstat.os)
                              /home/holy/vscode_remote_setup/glibc-build/elf/dl-allobjs.os (__GI___xstat64)
/home/holy/vscode_remote_setup/glibc-build/libc_pic.a(fxstat.os)
                              /home/holy/vscode_remote_setup/glibc-build/elf/dl-allobjs.os (__GI___fxstat64)
/home/holy/vscode_remote_setup/glibc-build/libc_pic.a(lxstat.os)
                              /home/holy/vscode_remote_setup/glibc-build/elf/dl-allobjs.os (__GI___lxstat64)
/home/holy/vscode_remote_setup/glibc-build/libc_pic.a(lseek64.os)
                              /home/holy/vscode_remote_setup/glibc-build/libc_pic.a(rewinddir.os) (__GI___lseek)
/home/holy/vscode_remote_setup/glibc-build/libc_pic.a(access.os)
                              /home/holy/vscode_remote_setup/glibc-build/elf/dl-allobjs.os (__access)
/home/holy/vscode_remote_setup/glibc-build/libc_pic.a(close_nocancel.os)
                              /home/holy/vscode_remote_setup/glibc-build/elf/dl-allobjs.os (__GI___close_nocancel)
/home/holy/vscode_remote_setup/glibc-build/libc_pic.a(fcntl_nocancel.os)
                              /home/holy/vscode_remote_setup/glibc-build/elf/dl-allobjs.os (__GI___fcntl64_nocancel)
/home/holy/vscode_remote_setup/glibc-build/libc_pic.a(open64_nocancel.os)
                              /home/holy/vscode_remote_setup/glibc-build/elf/dl-allobjs.os (__GI___open64_nocancel)
/home/holy/vscode_remote_setup/glibc-build/libc_pic.a(openat64_nocancel.os)
                              /home/holy/vscode_remote_setup/glibc-build/elf/dl-allobjs.os (__GI___openat64_nocancel)
/home/holy/vscode_remote_setup/glibc-build/libc_pic.a(read_nocancel.os)
                              /home/holy/vscode_remote_setup/glibc-build/elf/dl-allobjs.os (__GI___read_nocancel)
/home/holy/vscode_remote_setup/glibc-build/libc_pic.a(write_nocancel.os)
                              /home/holy/vscode_remote_setup/glibc-build/elf/dl-allobjs.os (__GI___write_nocancel)
/home/holy/vscode_remote_setup/glibc-build/libc_pic.a(mmap64.os)
                              /home/holy/vscode_remote_setup/glibc-build/elf/dl-allobjs.os (__mmap)
/home/holy/vscode_remote_setup/glibc-build/libc_pic.a(munmap.os)
                              /home/holy/vscode_remote_setup/glibc-build/elf/dl-allobjs.os (__munmap)
/home/holy/vscode_remote_setup/glibc-build/libc_pic.a(mprotect.os)
                              /home/holy/vscode_remote_setup/glibc-build/elf/dl-allobjs.os (__mprotect)
/home/holy/vscode_remote_setup/glibc-build/libc_pic.a(profil.os)
                              /home/holy/vscode_remote_setup/glibc-build/elf/dl-allobjs.os (__profil)
/home/holy/vscode_remote_setup/glibc-build/libc_pic.a(prof-freq.os)
                              /home/holy/vscode_remote_setup/glibc-build/libc_pic.a(profil.os) (__GI___profile_frequency)
/home/holy/vscode_remote_setup/glibc-build/libc_pic.a(libc-lowlevellock.os)
                              /home/holy/vscode_remote_setup/glibc-build/libc_pic.a(rewinddir.os) (__lll_lock_wait_private)
/home/holy/vscode_remote_setup/glibc-build/libc_pic.a(libc_multiple_threads.os)
                              /home/holy/vscode_remote_setup/glibc-build/libc_pic.a(rewinddir.os) (__libc_multiple_threads)
/home/holy/vscode_remote_setup/glibc-build/libc_pic.a(dl-addr-obj.os)
                              /home/holy/vscode_remote_setup/glibc-build/elf/dl-allobjs.os (_dl_addr_inside_object)
/home/holy/vscode_remote_setup/glibc-build/libc_pic.a(sigaction.os)
                              /home/holy/vscode_remote_setup/glibc-build/libc_pic.a(profil.os) (__GI___sigaction)
/home/holy/vscode_remote_setup/glibc-build/libc_pic.a(setitimer.os)
                              /home/holy/vscode_remote_setup/glibc-build/libc_pic.a(profil.os) (__setitimer)
/home/holy/vscode_remote_setup/glibc-build/libc_pic.a(getdents64.os)
                              /home/holy/vscode_remote_setup/glibc-build/libc_pic.a(readdir64.os) (__getdents64)

Memory Configuration

Name             Origin             Length             Attributes
*default*        0x0000000000000000 0xffffffffffffffff

Linker script and memory map

                0x0000000000000000                __stack_chk_fail = 0x0
                0x0000000000000000                __stack_chk_fail_local = 0x0
START GROUP
LOAD /home/holy/vscode_remote_setup/glibc-build/elf/dl-allobjs.os
LOAD /home/holy/vscode_remote_setup/glibc-build/libc_pic.a
LOAD /usr/lib/gcc/x86_64-linux-gnu/5/libgcc.a
END GROUP

.interp
 *(.interp)

.note.gnu.build-id
 *(.note.gnu.build-id)

.hash
 *(.hash)

.gnu.hash
 *(.gnu.hash)

.dynsym
 *(.dynsym)

.dynstr
 *(.dynstr)

.gnu.version
 *(.gnu.version)

.gnu.version_d
 *(.gnu.version_d)

.gnu.version_r
 *(.gnu.version_r)

.rela.init
 *(.rela.init)

.rela.text
 *(.rela.text)

.rela.fini
 *(.rela.fini)

.rela.rodata
 *(.rela.rodata)

.rela.data.rel.ro
 *(.rela.data.rel.ro)

.rela.data
 *(.rela.data)

.rela.tdata
 *(.rela.tdata)

.rela.tbss
 *(.rela.tbss)

.rela.ctors
 *(.rela.ctors)

.rela.dtors
 *(.rela.dtors)

.rela.got
 *(.rela.got)

.rela.bss
 *(.rela.bss)

.rela.ldata
 *(.rela.ldata)

.rela.lbss
 *(.rela.lbss)

.rela.lrodata
 *(.rela.lrodata)

.rela.ifunc
 *(.rela.ifunc)

.rela.plt
 *(.rela.plt)

.init
 *(SORT(.init))

.plt
 *(.plt)
 *(.iplt)

.plt.got
 *(.plt.got)

.plt.bnd
 *(.plt.bnd)

.text           0x0000000000000000    0x1f3bc
 *(.text .stub)
 .text          0x0000000000000000    0x18b40 /home/holy/vscode_remote_setup/glibc-build/elf/dl-allobjs.os
                0x0000000000000000                _start
                0x0000000000000008                _dl_start_user
                0x0000000000001270                handle_ld_preload
                0x0000000000006960                _dl_dst_count
                0x00000000000069f0                _dl_dst_substitute
                0x00000000000071a0                _dl_init_paths
                0x0000000000007490                _dl_map_object
                0x0000000000007e90                _dl_rtld_di_serinfo
                0x0000000000008e00                _dl_lookup_symbol_x
                0x0000000000009cb0                _dl_setup_hash
                0x0000000000009d60                _dl_add_to_namespace_list
                0x0000000000009df0                _dl_new_object
                0x000000000000a190                _dl_try_allocate_static_tls
                0x000000000000a270                _dl_allocate_static_tls
                0x000000000000a2a0                _dl_nothread_init_static_tls
                0x000000000000a2e0                _dl_protect_relro
                0x000000000000a340                _dl_reloc_bad_type
                0x000000000000a410                _dl_relocate_object
                0x000000000000bf10                _dl_map_object_deps
                0x000000000000cf30                _dl_important_hwcaps
                0x000000000000d790                _dl_fixup
                0x000000000000d990                _dl_profile_fixup
                0x000000000000dfb0                _dl_call_pltexit
                0x000000000000e1e0                _dl_init
                0x000000000000e310                _dl_fini
                0x000000000000e6c0                _dl_debug_state
                0x000000000000e6c0                __GI__dl_debug_state
                0x000000000000e6d0                _dl_debug_initialize
                0x000000000000ed40                _dl_sysdep_read_whole_file
                0x000000000000edd0                _dl_debug_printf
                0x000000000000ee80                _dl_debug_printf_c
                0x000000000000ef30                _dl_dprintf
                0x000000000000efd0                _dl_name_match_p
                0x000000000000f040                _dl_higher_prime_number
                0x000000000000f0c0                _dl_strtoul
                0x000000000000f220                _dl_check_map_versions
                0x000000000000f970                _dl_check_all_versions
                0x000000000000f9e0                _dl_start_profile
                0x00000000000101c0                __GI__dl_mcount
                0x00000000000101c0                _dl_mcount
                0x0000000000010730                _dl_next_tls_modid
                0x0000000000010830                _dl_count_modids
                0x0000000000010890                _dl_determine_tlsoffset
                0x0000000000010a60                _dl_get_tls_static_info
                0x0000000000010a80                _dl_allocate_tls_storage
                0x0000000000010b40                __GI__dl_allocate_tls_init
                0x0000000000010b40                _dl_allocate_tls_init
                0x0000000000010de0                __GI__dl_allocate_tls
                0x0000000000010de0                _dl_allocate_tls
                0x0000000000010e20                _dl_deallocate_tls
                0x0000000000010e20                __GI__dl_deallocate_tls
                0x0000000000010ea0                _dl_update_slotinfo
                0x0000000000011130                __GI___tls_get_addr
                0x0000000000011130                ___tls_get_addr
                0x0000000000011170                _dl_tls_get_addr_soft
                0x00000000000111f0                _dl_add_to_slotinfo
                0x00000000000112d0                __tls_get_addr_slow
                0x0000000000011300                _dl_get_origin
                0x0000000000011480                _dl_scope_free
                0x0000000000011550                _dl_make_stack_executable
                0x0000000000011550                __GI__dl_make_stack_executable
                0x00000000000117a0                __GI__dl_find_dso_for_object
                0x00000000000117a0                _dl_find_dso_for_object
                0x0000000000011860                _dl_open
                0x0000000000011b90                _dl_show_scope
                0x00000000000125b0                _dl_close_worker
                0x0000000000013550                _dl_close
                0x00000000000135c0                _dl_runtime_profile_avx512
                0x0000000000013a40                _dl_runtime_profile_avx
                0x0000000000013ec0                _dl_runtime_profile_sse
                0x00000000000140c0                _dl_runtime_resolve_fxsave
                0x0000000000014140                _dl_runtime_resolve_xsave
                0x0000000000014210                _dl_runtime_resolve_xsavec
                0x0000000000014300                _dl_exception_create
                0x0000000000014300                __GI__dl_exception_create
                0x0000000000014410                __GI__dl_exception_create_format
                0x0000000000014410                _dl_exception_create_format
                0x0000000000014730                _dl_exception_free
                0x0000000000014730                __GI__dl_exception_free
                0x0000000000014760                _dl_sort_maps
                0x00000000000149c0                _dl_cache_libcmp
                0x0000000000014aa0                _dl_load_cache_lookup
                0x0000000000015130                _dl_unload_cache
                0x0000000000015220                __tunable_set_val
                0x0000000000015240                __GI___tunables_init
                0x0000000000015720                __tunable_get_val
                0x0000000000015720                __GI___tunable_get_val
                0x00000000000157a0                _dl_make_tlsdesc_dynamic
                0x0000000000015a70                _dl_tlsdesc_resolve_rela_fixup
                0x0000000000015c30                _dl_tlsdesc_resolve_hold_fixup
                0x0000000000015c70                _dl_unmap
                0x0000000000015cf0                _dl_tlsdesc_return
                0x0000000000015d00                _dl_tlsdesc_undefweak
                0x0000000000015d10                _dl_tlsdesc_dynamic
                0x0000000000015db0                _dl_tlsdesc_resolve_rela
                0x0000000000015e20                _dl_tlsdesc_resolve_hold
                0x0000000000015ea0                __tls_get_addr
                0x0000000000015ee0                __get_cpu_features
                0x0000000000015ef0                _dl_tunable_set_hwcaps
                0x0000000000016e20                _dl_sysdep_start
                0x0000000000017560                _dl_sysdep_start_cleanup
                0x0000000000017570                _dl_show_auxv
                0x0000000000017720                _dl_discover_osversion
                0x00000000000178f0                _dl_next_ld_env_entry
                0x0000000000017940                unsetenv
                0x00000000000179b0                malloc
                0x0000000000017ac0                calloc
                0x0000000000017b00                free
                0x0000000000017b30                __sigjmp_save
                0x0000000000017b40                __strerror_r
                0x0000000000017c20                __GI___libc_fatal
                0x0000000000017c20                __libc_fatal
                0x0000000000017c50                __GI___chk_fail
                0x0000000000017c50                __chk_fail
                0x0000000000017c60                __GI___assert_fail
                0x0000000000017c60                __assert_fail
                0x0000000000017cb0                realloc
                0x0000000000017d40                __GI___assert_perror_fail
                0x0000000000017d40                __assert_perror_fail
                0x0000000000017db0                _itoa
                0x0000000000017e00                __strsep
                0x0000000000017e00                strsep
                0x0000000000017e00                __strsep_g
                0x0000000000017f40                _dl_signal_exception
                0x0000000000017f90                _dl_signal_error
                0x0000000000017fe0                _dl_signal_cexception
                0x0000000000018060                _dl_signal_cerror
                0x00000000000180f0                _dl_catch_exception
                0x00000000000181a0                _dl_catch_error
                0x00000000000181f0                _dl_receive_error
                0x0000000000018230                _dl_resolve_conflicts
                0x00000000000183b0                __brk
                0x00000000000183b0                brk
                0x0000000000018400                sbrk
                0x0000000000018400                __sbrk
                0x0000000000018490                __getcwd
                0x0000000000018490                getcwd
                0x00000000000188f0                openat64
                0x0000000000018950                __alloc_dir
                0x0000000000018a50                __opendir
                0x0000000000018a50                opendir
                0x0000000000018af0                __fxstatat
                0x0000000000018af0                __fxstatat64
                0x0000000000018af0                __GI___fxstatat64
 .text          0x0000000000018b40       0xe2 /home/holy/vscode_remote_setup/glibc-build/libc_pic.a(check_fds.os)
                0x0000000000018bf0                __libc_check_standard_fds
 .text          0x0000000000018c22        0x0 /home/holy/vscode_remote_setup/glibc-build/libc_pic.a(errno.os)
 *fill*         0x0000000000018c22        0xe 
 .text          0x0000000000018c30       0x57 /home/holy/vscode_remote_setup/glibc-build/libc_pic.a(setjmp.os)
                0x0000000000018c30                __sigsetjmp
                0x0000000000018c30                __GI___sigsetjmp
 *fill*         0x0000000000018c87        0x9 
 .text          0x0000000000018c90       0x50 /home/holy/vscode_remote_setup/glibc-build/libc_pic.a(__longjmp.os)
                0x0000000000018c90                __longjmp
 .text          0x0000000000018ce0       0xb5 /home/holy/vscode_remote_setup/glibc-build/libc_pic.a(scratch_buffer_set_array_size.os)
                0x0000000000018ce0                __libc_scratch_buffer_set_array_size
                0x0000000000018ce0                __GI___libc_scratch_buffer_set_array_size
 *fill*         0x0000000000018d95        0xb 
 .text          0x0000000000018da0       0x42 /home/holy/vscode_remote_setup/glibc-build/libc_pic.a(strchr.os)
                0x0000000000018de0                __GI_strchr
                0x0000000000018de0                index
                0x0000000000018de0                strchr
 *fill*         0x0000000000018de2        0xe 
 .text          0x0000000000018df0       0x52 /home/holy/vscode_remote_setup/glibc-build/libc_pic.a(strcmp.os)
                0x0000000000018e40                __GI_strcmp
                0x0000000000018e40                strcmp
 *fill*         0x0000000000018e42        0xe 
 .text          0x0000000000018e50       0x22 /home/holy/vscode_remote_setup/glibc-build/libc_pic.a(strcspn.os)
                0x0000000000018e70                strcspn
                0x0000000000018e70                __GI_strcspn
 *fill*         0x0000000000018e72        0xe 
 .text          0x0000000000018e80       0x41 /home/holy/vscode_remote_setup/glibc-build/libc_pic.a(strdup.os)
                0x0000000000018e80                __GI___strdup
                0x0000000000018e80                __strdup
                0x0000000000018e80                strdup
 *fill*         0x0000000000018ec1        0xf 
 .text          0x0000000000018ed0       0x32 /home/holy/vscode_remote_setup/glibc-build/libc_pic.a(strlen.os)
                0x0000000000018f00                strlen
                0x0000000000018f00                __GI_strlen
 *fill*         0x0000000000018f02        0xe 
 .text          0x0000000000018f10       0x32 /home/holy/vscode_remote_setup/glibc-build/libc_pic.a(strnlen.os)
                0x0000000000018f40                __strnlen
                0x0000000000018f40                strnlen
                0x0000000000018f40                __GI___strnlen
                0x0000000000018f40                __GI_strnlen
 *fill*         0x0000000000018f42        0xe 
 .text          0x0000000000018f50       0x62 /home/holy/vscode_remote_setup/glibc-build/libc_pic.a(strncmp.os)
                0x0000000000018fb0                __GI_strncmp
                0x0000000000018fb0                strncmp
 *fill*         0x0000000000018fb2        0xe 
 .text          0x0000000000018fc0       0x32 /home/holy/vscode_remote_setup/glibc-build/libc_pic.a(memchr.os)
                0x0000000000018ff0                __GI_memchr
                0x0000000000018ff0                memchr
                0x0000000000018ff0                __memchr
 *fill*         0x0000000000018ff2        0xe 
 .text          0x0000000000019000       0x72 /home/holy/vscode_remote_setup/glibc-build/libc_pic.a(memcmp.os)
                0x0000000000019070                bcmp
                0x0000000000019070                __GI_memcmp
                0x0000000000019070                memcmp
 *fill*         0x0000000000019072        0xe 
 .text          0x0000000000019080       0xd5 /home/holy/vscode_remote_setup/glibc-build/libc_pic.a(memmove.os)
                0x0000000000019150                memmove
                0x0000000000019150                __GI_memmove
                0x0000000000019150                __libc_memmove
 *fill*         0x0000000000019155        0xb 
 .text          0x0000000000019160       0xa5 /home/holy/vscode_remote_setup/glibc-build/libc_pic.a(memset.os)
                0x0000000000019200                __GI_memset
                0x0000000000019200                memset
 *fill*         0x0000000000019205        0xb 
 .text          0x0000000000019210       0xd5 /home/holy/vscode_remote_setup/glibc-build/libc_pic.a(mempcpy.os)
                0x00000000000192e0                mempcpy
                0x00000000000192e0                __GI_mempcpy
                0x00000000000192e0                __mempcpy
                0x00000000000192e0                __GI___mempcpy
 *fill*         0x00000000000192e5        0xb 
 .text          0x00000000000192f0       0x32 /home/holy/vscode_remote_setup/glibc-build/libc_pic.a(stpcpy.os)
                0x0000000000019320                stpcpy
                0x0000000000019320                __GI_stpcpy
                0x0000000000019320                __stpcpy
                0x0000000000019320                __GI___stpcpy
 *fill*         0x0000000000019322        0xe 
 .text          0x0000000000019330       0xd5 /home/holy/vscode_remote_setup/glibc-build/libc_pic.a(memcpy.os)
                0x0000000000019400                __GI_memcpy
                0x0000000000019400                __new_memcpy
                0x0000000000019400                memcpy@@GLIBC_2.14
 *fill*         0x0000000000019405        0xb 
 .text          0x0000000000019410       0x32 /home/holy/vscode_remote_setup/glibc-build/libc_pic.a(rawmemchr.os)
                0x0000000000019440                __GI___rawmemchr
                0x0000000000019440                __rawmemchr
                0x0000000000019440                rawmemchr
 *fill*         0x0000000000019442        0xe 
 .text          0x0000000000019450     0x1439 /home/holy/vscode_remote_setup/glibc-build/libc_pic.a(strcmp-sse2.os)
                0x0000000000019450                __strcmp_sse2
 *fill*         0x000000000001a889        0x7 
 .text          0x000000000001a890      0x2a3 /home/holy/vscode_remote_setup/glibc-build/libc_pic.a(strcmp-sse2-unaligned.os)
                0x000000000001a890                __strcmp_sse2_unaligned
 .text          0x000000000001ab33        0x0 /home/holy/vscode_remote_setup/glibc-build/libc_pic.a(strcmp-ssse3.os)
 .text          0x000000000001ab33        0x0 /home/holy/vscode_remote_setup/glibc-build/libc_pic.a(strcmp-avx2.os)
 *fill*         0x000000000001ab33        0xd 
 .text          0x000000000001ab40     0x1849 /home/holy/vscode_remote_setup/glibc-build/libc_pic.a(strncmp-sse2.os)
                0x000000000001ab40                __strncmp_sse2
 .text          0x000000000001c389        0x0 /home/holy/vscode_remote_setup/glibc-build/libc_pic.a(strncmp-ssse3.os)
 .text          0x000000000001c389        0x0 /home/holy/vscode_remote_setup/glibc-build/libc_pic.a(strncmp-sse4_2.os)
 .text          0x000000000001c389        0x0 /home/holy/vscode_remote_setup/glibc-build/libc_pic.a(strncmp-avx2.os)
 *fill*         0x000000000001c389        0x7 
 .text          0x000000000001c390      0x323 /home/holy/vscode_remote_setup/glibc-build/libc_pic.a(memchr-sse2.os)
                0x000000000001c390                __memchr_sse2
 *fill*         0x000000000001c6b3        0xd 
 .text          0x000000000001c6c0      0x1f9 /home/holy/vscode_remote_setup/glibc-build/libc_pic.a(rawmemchr-sse2.os)
                0x000000000001c6c0                __rawmemchr_sse2
 .text          0x000000000001c8b9        0x0 /home/holy/vscode_remote_setup/glibc-build/libc_pic.a(memchr-avx2.os)
 .text          0x000000000001c8b9        0x0 /home/holy/vscode_remote_setup/glibc-build/libc_pic.a(rawmemchr-avx2.os)
 *fill*         0x000000000001c8b9        0x7 
 .text          0x000000000001c8c0      0x400 /home/holy/vscode_remote_setup/glibc-build/libc_pic.a(memcmp-sse2.os)
                0x000000000001c8c0                __memcmp_sse2
 .text          0x000000000001ccc0        0x0 /home/holy/vscode_remote_setup/glibc-build/libc_pic.a(memcmp-avx2-movbe.os)
 .text          0x000000000001ccc0        0x0 /home/holy/vscode_remote_setup/glibc-build/libc_pic.a(memcmp-sse4.os)
 .text          0x000000000001ccc0        0x0 /home/holy/vscode_remote_setup/glibc-build/libc_pic.a(memcpy-ssse3.os)
 .text          0x000000000001ccc0        0x0 /home/holy/vscode_remote_setup/glibc-build/libc_pic.a(memmove-ssse3.os)
 .text          0x000000000001ccc0        0x0 /home/holy/vscode_remote_setup/glibc-build/libc_pic.a(memcpy-ssse3-back.os)
 .text          0x000000000001ccc0        0x0 /home/holy/vscode_remote_setup/glibc-build/libc_pic.a(memmove-ssse3-back.os)
 .text          0x000000000001ccc0        0x0 /home/holy/vscode_remote_setup/glibc-build/libc_pic.a(memmove-avx512-no-vzeroupper.os)
 .text          0x000000000001ccc0      0x21a /home/holy/vscode_remote_setup/glibc-build/libc_pic.a(strchr-sse2.os)
                0x000000000001ccc0                __strchr_sse2
 .text          0x000000000001ceda        0x0 /home/holy/vscode_remote_setup/glibc-build/libc_pic.a(strchr-avx2.os)
 *fill*         0x000000000001ceda        0x6 
 .text          0x000000000001cee0      0x19c /home/holy/vscode_remote_setup/glibc-build/libc_pic.a(strlen-sse2.os)
                0x000000000001cee0                __strlen_sse2
                0x000000000001cee0                __GI___strlen_sse2
 *fill*         0x000000000001d07c        0x4 
 .text          0x000000000001d080      0x218 /home/holy/vscode_remote_setup/glibc-build/libc_pic.a(strnlen-sse2.os)
                0x000000000001d080                __strnlen_sse2
 .text          0x000000000001d298        0x0 /home/holy/vscode_remote_setup/glibc-build/libc_pic.a(strlen-avx2.os)
 .text          0x000000000001d298        0x0 /home/holy/vscode_remote_setup/glibc-build/libc_pic.a(strnlen-avx2.os)
 *fill*         0x000000000001d298        0x8 
 .text          0x000000000001d2a0       0xdc /home/holy/vscode_remote_setup/glibc-build/libc_pic.a(stpcpy-sse2.os)
                0x000000000001d2a0                __stpcpy_sse2
 .text          0x000000000001d37c        0x0 /home/holy/vscode_remote_setup/glibc-build/libc_pic.a(stpcpy-ssse3.os)
 *fill*         0x000000000001d37c        0x4 
 .text          0x000000000001d380      0x6b0 /home/holy/vscode_remote_setup/glibc-build/libc_pic.a(stpcpy-sse2-unaligned.os)
                0x000000000001d380                __stpcpy_sse2_unaligned
 .text          0x000000000001da30        0x0 /home/holy/vscode_remote_setup/glibc-build/libc_pic.a(strchr-sse2-no-bsf.os)
 .text          0x000000000001da30        0x0 /home/holy/vscode_remote_setup/glibc-build/libc_pic.a(memcmp-ssse3.os)
 .text          0x000000000001da30       0x97 /home/holy/vscode_remote_setup/glibc-build/libc_pic.a(strcspn-sse2.os)
                0x000000000001da30                __strcspn_sse2
 .text          0x000000000001dac7        0x0 /home/holy/vscode_remote_setup/glibc-build/libc_pic.a(strcspn-c.os)
 .text          0x000000000001dac7        0x0 /home/holy/vscode_remote_setup/glibc-build/libc_pic.a(varshift.os)
 .text          0x000000000001dac7        0x0 /home/holy/vscode_remote_setup/glibc-build/libc_pic.a(memset-avx512-no-vzeroupper.os)
 *fill*         0x000000000001dac7        0x9 
 .text          0x000000000001dad0      0x3e9 /home/holy/vscode_remote_setup/glibc-build/libc_pic.a(memmove-sse2-unaligned-erms.os)
                0x000000000001dad0                __mempcpy_chk_sse2_unaligned
                0x000000000001dae0                __mempcpy_sse2_unaligned
                0x000000000001daf0                __memcpy_chk_sse2_unaligned
                0x000000000001daf0                __memmove_chk_sse2_unaligned
                0x000000000001db00                __memmove_sse2_unaligned
                0x000000000001db00                __memcpy_sse2_unaligned
                0x000000000001db00                memcpy@GLIBC_2.2.5
                0x000000000001db30                __mempcpy_chk_erms
                0x000000000001db40                __mempcpy_erms
                0x000000000001db50                __memcpy_chk_erms
                0x000000000001db50                __memmove_chk_erms
                0x000000000001db60                __memmove_erms
                0x000000000001db60                __memcpy_erms
                0x000000000001db90                __mempcpy_chk_sse2_unaligned_erms
                0x000000000001dba0                __mempcpy_sse2_unaligned_erms
                0x000000000001dbb0                __memmove_chk_sse2_unaligned_erms
                0x000000000001dbb0                __memcpy_chk_sse2_unaligned_erms
                0x000000000001dbc0                __memmove_sse2_unaligned_erms
                0x000000000001dbc0                __memcpy_sse2_unaligned_erms
 .text          0x000000000001deb9        0x0 /home/holy/vscode_remote_setup/glibc-build/libc_pic.a(memmove-avx-unaligned-erms.os)
 .text          0x000000000001deb9        0x0 /home/holy/vscode_remote_setup/glibc-build/libc_pic.a(memmove-avx512-unaligned-erms.os)
 *fill*         0x000000000001deb9        0x7 
 .text          0x000000000001dec0      0x1b3 /home/holy/vscode_remote_setup/glibc-build/libc_pic.a(memset-sse2-unaligned-erms.os)
                0x000000000001dec0                __bzero
                0x000000000001dec0                bzero
                0x000000000001ded0                __wmemset_chk_sse2_unaligned
                0x000000000001dee0                __wmemset_sse2_unaligned
                0x000000000001df00                __memset_chk_sse2_unaligned
                0x000000000001df10                __memset_sse2_unaligned
                0x000000000001df50                __memset_chk_erms
                0x000000000001df60                __memset_erms
                0x000000000001df80                __memset_chk_sse2_unaligned_erms
                0x000000000001df90                __memset_sse2_unaligned_erms
 .text          0x000000000001e073        0x0 /home/holy/vscode_remote_setup/glibc-build/libc_pic.a(memset-avx2-unaligned-erms.os)
 .text          0x000000000001e073        0x0 /home/holy/vscode_remote_setup/glibc-build/libc_pic.a(memset-avx512-unaligned-erms.os)
 *fill*         0x000000000001e073        0xd 
 .text          0x000000000001e080      0x5fd /home/holy/vscode_remote_setup/glibc-build/libc_pic.a(cacheinfo.os)
                0x000000000001e650                __cache_sysconf
 *fill*         0x000000000001e67d        0x3 
 .text          0x000000000001e680       0x2c /home/holy/vscode_remote_setup/glibc-build/libc_pic.a(closedir.os)
                0x000000000001e680                __closedir
                0x000000000001e680                closedir
 *fill*         0x000000000001e6ac        0x4 
 .text          0x000000000001e6b0       0x93 /home/holy/vscode_remote_setup/glibc-build/libc_pic.a(rewinddir.os)
                0x000000000001e6b0                rewinddir
                0x000000000001e6b0                __rewinddir
                0x000000000001e6b0                __GI___rewinddir
 *fill*         0x000000000001e743        0xd 
 .text          0x000000000001e750       0xf8 /home/holy/vscode_remote_setup/glibc-build/libc_pic.a(readdir64.os)
                0x000000000001e750                readdir
                0x000000000001e750                __readdir64
                0x000000000001e750                __readdir
                0x000000000001e750                __GI___readdir64
                0x000000000001e750                readdir64
 *fill*         0x000000000001e848        0x8 
 .text          0x000000000001e850       0x9a /home/holy/vscode_remote_setup/glibc-build/libc_pic.a(fdopendir.os)
                0x000000000001e850                fdopendir
                0x000000000001e850                __fdopendir
 *fill*         0x000000000001e8ea        0x6 
 .text          0x000000000001e8f0       0x21 /home/holy/vscode_remote_setup/glibc-build/libc_pic.a(uname.os)
                0x000000000001e8f0                uname
                0x000000000001e8f0                __GI_uname
                0x000000000001e8f0                __uname
                0x000000000001e8f0                __GI___uname
 *fill*         0x000000000001e911        0xf 
 .text          0x000000000001e920       0x58 /home/holy/vscode_remote_setup/glibc-build/libc_pic.a(_exit.os)
                0x000000000001e920                _Exit
                0x000000000001e920                __GI__exit
                0x000000000001e920                _exit
 *fill*         0x000000000001e978        0x8 
 .text          0x000000000001e980        0x8 /home/holy/vscode_remote_setup/glibc-build/libc_pic.a(getpid.os)
                0x000000000001e980                __getpid
                0x000000000001e980                getpid
                0x000000000001e980                __GI_getpid
                0x000000000001e980                __GI___getpid
 .text          0x000000000001e988        0x0 /home/holy/vscode_remote_setup/glibc-build/libc_pic.a(environ.os)
 *fill*         0x000000000001e988        0x8 
 .text          0x000000000001e990       0x4c /home/holy/vscode_remote_setup/glibc-build/libc_pic.a(xstat.os)
                0x000000000001e990                _xstat
                0x000000000001e990                __xstat64
                0x000000000001e990                __GI___xstat64
                0x000000000001e990                __GI___xstat
                0x000000000001e990                __xstat
 *fill*         0x000000000001e9dc        0x4 
 .text          0x000000000001e9e0       0x4c /home/holy/vscode_remote_setup/glibc-build/libc_pic.a(fxstat.os)
                0x000000000001e9e0                __GI___fxstat
                0x000000000001e9e0                __GI___fxstat64
                0x000000000001e9e0                __fxstat64
                0x000000000001e9e0                _fxstat
                0x000000000001e9e0                __fxstat
 *fill*         0x000000000001ea2c        0x4 
 .text          0x000000000001ea30       0x4c /home/holy/vscode_remote_setup/glibc-build/libc_pic.a(lxstat.os)
                0x000000000001ea30                __GI___lxstat
                0x000000000001ea30                _lxstat
                0x000000000001ea30                __lxstat
                0x000000000001ea30                __lxstat64
                0x000000000001ea30                __GI___lxstat64
 *fill*         0x000000000001ea7c        0x4 
 .text          0x000000000001ea80       0x2c /home/holy/vscode_remote_setup/glibc-build/libc_pic.a(lseek64.os)
                0x000000000001ea80                __compat_llseek
                0x000000000001ea80                __GI___lseek
                0x000000000001ea80                __lseek64
                0x000000000001ea80                lseek
                0x000000000001ea80                __libc_lseek64
                0x000000000001ea80                llseek@GLIBC_2.2.5
                0x000000000001ea80                __lseek
                0x000000000001ea80                __libc_lseek
                0x000000000001ea80                lseek64
 *fill*         0x000000000001eaac        0x4 
 .text          0x000000000001eab0       0x2a /home/holy/vscode_remote_setup/glibc-build/libc_pic.a(access.os)
                0x000000000001eab0                access
                0x000000000001eab0                __access
 *fill*         0x000000000001eada        0x6 
 .text          0x000000000001eae0       0x2a /home/holy/vscode_remote_setup/glibc-build/libc_pic.a(close_nocancel.os)
                0x000000000001eae0                __GI___close_nocancel
                0x000000000001eae0                __close_nocancel
 *fill*         0x000000000001eb0a        0x6 
 .text          0x000000000001eb10       0x9f /home/holy/vscode_remote_setup/glibc-build/libc_pic.a(fcntl_nocancel.os)
                0x000000000001eb10                __fcntl64_nocancel_adjusted
                0x000000000001eb80                __fcntl64_nocancel
                0x000000000001eb80                __GI___fcntl64_nocancel
 *fill*         0x000000000001ebaf        0x1 
 .text          0x000000000001ebb0       0x7a /home/holy/vscode_remote_setup/glibc-build/libc_pic.a(open64_nocancel.os)
                0x000000000001ebb0                __GI___open_nocancel
                0x000000000001ebb0                __open_nocancel
                0x000000000001ebb0                __GI___open64_nocancel
                0x000000000001ebb0                __open64_nocancel
 *fill*         0x000000000001ec2a        0x6 
 .text          0x000000000001ec30       0x6a /home/holy/vscode_remote_setup/glibc-build/libc_pic.a(openat64_nocancel.os)
                0x000000000001ec30                __GI___openat64_nocancel
                0x000000000001ec30                __openat64_nocancel
                0x000000000001ec30                __GI___openat_nocancel
                0x000000000001ec30                __openat_nocancel
 *fill*         0x000000000001ec9a        0x6 
 .text          0x000000000001eca0       0x24 /home/holy/vscode_remote_setup/glibc-build/libc_pic.a(read_nocancel.os)
                0x000000000001eca0                __read_nocancel
                0x000000000001eca0                __GI___read_nocancel
 *fill*         0x000000000001ecc4        0xc 
 .text          0x000000000001ecd0       0x2c /home/holy/vscode_remote_setup/glibc-build/libc_pic.a(write_nocancel.os)
                0x000000000001ecd0                __GI___write_nocancel
                0x000000000001ecd0                __write_nocancel
 *fill*         0x000000000001ecfc        0x4 
 .text          0x000000000001ed00       0xe9 /home/holy/vscode_remote_setup/glibc-build/libc_pic.a(mmap64.os)
                0x000000000001ed00                __GI___mmap
                0x000000000001ed00                __mmap
                0x000000000001ed00                mmap
                0x000000000001ed00                __GI___mmap64
                0x000000000001ed00                __mmap64
                0x000000000001ed00                mmap64
 *fill*         0x000000000001ede9        0x7 
 .text          0x000000000001edf0       0x21 /home/holy/vscode_remote_setup/glibc-build/libc_pic.a(munmap.os)
                0x000000000001edf0                munmap
                0x000000000001edf0                __GI___munmap
                0x000000000001edf0                __GI_munmap
                0x000000000001edf0                __munmap
 *fill*         0x000000000001ee11        0xf 
 .text          0x000000000001ee20       0x21 /home/holy/vscode_remote_setup/glibc-build/libc_pic.a(mprotect.os)
                0x000000000001ee20                __mprotect
                0x000000000001ee20                __GI___mprotect
                0x000000000001ee20                __GI_mprotect
                0x000000000001ee20                mprotect
 *fill*         0x000000000001ee41        0xf 
 .text          0x000000000001ee50      0x1ce /home/holy/vscode_remote_setup/glibc-build/libc_pic.a(profil.os)
                0x000000000001eea0                __profil
                0x000000000001eea0                profil
 *fill*         0x000000000001f01e        0x2 
 .text          0x000000000001f020        0xb /home/holy/vscode_remote_setup/glibc-build/libc_pic.a(prof-freq.os)
                0x000000000001f020                __GI___profile_frequency
                0x000000000001f020                __profile_frequency
 *fill*         0x000000000001f02b        0x5 
 .text          0x000000000001f030       0x4c /home/holy/vscode_remote_setup/glibc-build/libc_pic.a(libc-lowlevellock.os)
                0x000000000001f030                __lll_lock_wait_private
                0x000000000001f060                __lll_unlock_wake_private
 .text          0x000000000001f07c        0x0 /home/holy/vscode_remote_setup/glibc-build/libc_pic.a(libc_multiple_threads.os)
 *fill*         0x000000000001f07c        0x4 
 .text          0x000000000001f080       0x53 /home/holy/vscode_remote_setup/glibc-build/libc_pic.a(dl-addr-obj.os)
                0x000000000001f080                _dl_addr_inside_object
 *fill*         0x000000000001f0d3        0xd 
 .text          0x000000000001f0e0      0x27c /home/holy/vscode_remote_setup/glibc-build/libc_pic.a(sigaction.os)
                0x000000000001f100                __libc_sigaction
                0x000000000001f100                __GI___libc_sigaction
                0x000000000001f330                sigaction
                0x000000000001f330                __GI___sigaction
                0x000000000001f330                __sigaction
 *fill*         0x000000000001f35c        0x4 
 .text          0x000000000001f360       0x21 /home/holy/vscode_remote_setup/glibc-build/libc_pic.a(setitimer.os)
                0x000000000001f360                setitimer
                0x000000000001f360                __setitimer
                0x000000000001f360                __GI_setitimer
                0x000000000001f360                __GI___setitimer
 *fill*         0x000000000001f381        0xf 
 .text          0x000000000001f390       0x2c /home/holy/vscode_remote_setup/glibc-build/libc_pic.a(getdents64.os)
                0x000000000001f390                __getdents
                0x000000000001f390                __getdents64
 *(.gnu.warning)

.text.unlikely  0x0000000000000000      0x169
 .text.unlikely
                0x0000000000000000      0x169 /home/holy/vscode_remote_setup/glibc-build/elf/dl-allobjs.os
 .text.unlikely
                0x0000000000000169        0x0 /home/holy/vscode_remote_setup/glibc-build/libc_pic.a(check_fds.os)
 .text.unlikely
                0x0000000000000169        0x0 /home/holy/vscode_remote_setup/glibc-build/libc_pic.a(scratch_buffer_set_array_size.os)
 .text.unlikely
                0x0000000000000169        0x0 /home/holy/vscode_remote_setup/glibc-build/libc_pic.a(strchr.os)
 .text.unlikely
                0x0000000000000169        0x0 /home/holy/vscode_remote_setup/glibc-build/libc_pic.a(strcmp.os)
 .text.unlikely
                0x0000000000000169        0x0 /home/holy/vscode_remote_setup/glibc-build/libc_pic.a(strcspn.os)
 .text.unlikely
                0x0000000000000169        0x0 /home/holy/vscode_remote_setup/glibc-build/libc_pic.a(strdup.os)
 .text.unlikely
                0x0000000000000169        0x0 /home/holy/vscode_remote_setup/glibc-build/libc_pic.a(strlen.os)
 .text.unlikely
                0x0000000000000169        0x0 /home/holy/vscode_remote_setup/glibc-build/libc_pic.a(strnlen.os)
 .text.unlikely
                0x0000000000000169        0x0 /home/holy/vscode_remote_setup/glibc-build/libc_pic.a(strncmp.os)
 .text.unlikely
                0x0000000000000169        0x0 /home/holy/vscode_remote_setup/glibc-build/libc_pic.a(memchr.os)
 .text.unlikely
                0x0000000000000169        0x0 /home/holy/vscode_remote_setup/glibc-build/libc_pic.a(memcmp.os)
 .text.unlikely
                0x0000000000000169        0x0 /home/holy/vscode_remote_setup/glibc-build/libc_pic.a(memmove.os)
 .text.unlikely
                0x0000000000000169        0x0 /home/holy/vscode_remote_setup/glibc-build/libc_pic.a(memset.os)
 .text.unlikely
                0x0000000000000169        0x0 /home/holy/vscode_remote_setup/glibc-build/libc_pic.a(mempcpy.os)
 .text.unlikely
                0x0000000000000169        0x0 /home/holy/vscode_remote_setup/glibc-build/libc_pic.a(stpcpy.os)
 .text.unlikely
                0x0000000000000169        0x0 /home/holy/vscode_remote_setup/glibc-build/libc_pic.a(memcpy.os)
 .text.unlikely
                0x0000000000000169        0x0 /home/holy/vscode_remote_setup/glibc-build/libc_pic.a(rawmemchr.os)
 .text.unlikely
                0x0000000000000169        0x0 /home/holy/vscode_remote_setup/glibc-build/libc_pic.a(cacheinfo.os)
 .text.unlikely
                0x0000000000000169        0x0 /home/holy/vscode_remote_setup/glibc-build/libc_pic.a(closedir.os)
 .text.unlikely
                0x0000000000000169        0x0 /home/holy/vscode_remote_setup/glibc-build/libc_pic.a(rewinddir.os)
 .text.unlikely
                0x0000000000000169        0x0 /home/holy/vscode_remote_setup/glibc-build/libc_pic.a(readdir64.os)
 .text.unlikely
                0x0000000000000169        0x0 /home/holy/vscode_remote_setup/glibc-build/libc_pic.a(fdopendir.os)
 .text.unlikely
                0x0000000000000169        0x0 /home/holy/vscode_remote_setup/glibc-build/libc_pic.a(_exit.os)
 .text.unlikely
                0x0000000000000169        0x0 /home/holy/vscode_remote_setup/glibc-build/libc_pic.a(xstat.os)
 .text.unlikely
                0x0000000000000169        0x0 /home/holy/vscode_remote_setup/glibc-build/libc_pic.a(fxstat.os)
 .text.unlikely
                0x0000000000000169        0x0 /home/holy/vscode_remote_setup/glibc-build/libc_pic.a(lxstat.os)
 .text.unlikely
                0x0000000000000169        0x0 /home/holy/vscode_remote_setup/glibc-build/libc_pic.a(lseek64.os)
 .text.unlikely
                0x0000000000000169        0x0 /home/holy/vscode_remote_setup/glibc-build/libc_pic.a(access.os)
 .text.unlikely
                0x0000000000000169        0x0 /home/holy/vscode_remote_setup/glibc-build/libc_pic.a(close_nocancel.os)
 .text.unlikely
                0x0000000000000169        0x0 /home/holy/vscode_remote_setup/glibc-build/libc_pic.a(fcntl_nocancel.os)
 .text.unlikely
                0x0000000000000169        0x0 /home/holy/vscode_remote_setup/glibc-build/libc_pic.a(open64_nocancel.os)
 .text.unlikely
                0x0000000000000169        0x0 /home/holy/vscode_remote_setup/glibc-build/libc_pic.a(openat64_nocancel.os)
 .text.unlikely
                0x0000000000000169        0x0 /home/holy/vscode_remote_setup/glibc-build/libc_pic.a(read_nocancel.os)
 .text.unlikely
                0x0000000000000169        0x0 /home/holy/vscode_remote_setup/glibc-build/libc_pic.a(write_nocancel.os)
 .text.unlikely
                0x0000000000000169        0x0 /home/holy/vscode_remote_setup/glibc-build/libc_pic.a(mmap64.os)
 .text.unlikely
                0x0000000000000169        0x0 /home/holy/vscode_remote_setup/glibc-build/libc_pic.a(profil.os)
 .text.unlikely
                0x0000000000000169        0x0 /home/holy/vscode_remote_setup/glibc-build/libc_pic.a(prof-freq.os)
 .text.unlikely
                0x0000000000000169        0x0 /home/holy/vscode_remote_setup/glibc-build/libc_pic.a(dl-addr-obj.os)
 .text.unlikely
                0x0000000000000169        0x0 /home/holy/vscode_remote_setup/glibc-build/libc_pic.a(sigaction.os)
 .text.unlikely
                0x0000000000000169        0x0 /home/holy/vscode_remote_setup/glibc-build/libc_pic.a(getdents64.os)

.text.ssse3     0x0000000000000000     0xed43
 .text.ssse3    0x0000000000000000     0x1259 /home/holy/vscode_remote_setup/glibc-build/libc_pic.a(strcmp-ssse3.os)
                0x0000000000000000                __GI___strcmp_ssse3
                0x0000000000000000                __strcmp_ssse3
 *fill*         0x0000000000001259        0x7 
 .text.ssse3    0x0000000000001260     0x1759 /home/holy/vscode_remote_setup/glibc-build/libc_pic.a(strncmp-ssse3.os)
                0x0000000000001260                __strncmp_ssse3
 *fill*         0x00000000000029b9        0x7 
 .text.ssse3    0x00000000000029c0     0x29e6 /home/holy/vscode_remote_setup/glibc-build/libc_pic.a(memcpy-ssse3.os)
                0x00000000000029c0                __mempcpy_chk_ssse3
                0x00000000000029d0                __mempcpy_ssse3
                0x00000000000029e0                __memcpy_chk_ssse3
                0x00000000000029f0                __memcpy_ssse3
 *fill*         0x00000000000053a6        0xa 
 .text.ssse3    0x00000000000053b0     0x2b77 /home/holy/vscode_remote_setup/glibc-build/libc_pic.a(memmove-ssse3.os)
                0x00000000000053b0                __memmove_chk_ssse3
                0x00000000000053c0                __memmove_ssse3
 *fill*         0x0000000000007f27        0x9 
 .text.ssse3    0x0000000000007f30     0x2ae6 /home/holy/vscode_remote_setup/glibc-build/libc_pic.a(memcpy-ssse3-back.os)
                0x0000000000007f30                __mempcpy_chk_ssse3_back
                0x0000000000007f40                __mempcpy_ssse3_back
                0x0000000000007f50                __memcpy_chk_ssse3_back
                0x0000000000007f60                __memcpy_ssse3_back
 *fill*         0x000000000000aa16        0xa 
 .text.ssse3    0x000000000000aa20     0x2b16 /home/holy/vscode_remote_setup/glibc-build/libc_pic.a(memmove-ssse3-back.os)
                0x000000000000aa20                __memmove_chk_ssse3_back
                0x000000000000aa30                __memmove_ssse3_back
 *fill*         0x000000000000d536        0xa 
 .text.ssse3    0x000000000000d540     0x1803 /home/holy/vscode_remote_setup/glibc-build/libc_pic.a(stpcpy-ssse3.os)
                0x000000000000d540                __stpcpy_ssse3

.text.avx       0x0000000000000000     0x1e3b
 .text.avx      0x0000000000000000      0x43f /home/holy/vscode_remote_setup/glibc-build/libc_pic.a(strcmp-avx2.os)
                0x0000000000000000                __strcmp_avx2
 *fill*         0x000000000000043f        0x1 
 .text.avx      0x0000000000000440      0x508 /home/holy/vscode_remote_setup/glibc-build/libc_pic.a(strncmp-avx2.os)
                0x0000000000000440                __strncmp_avx2
 *fill*         0x0000000000000948        0x8 
 .text.avx      0x0000000000000950      0x2cd /home/holy/vscode_remote_setup/glibc-build/libc_pic.a(memchr-avx2.os)
                0x0000000000000950                __memchr_avx2
 *fill*         0x0000000000000c1d        0x3 
 .text.avx      0x0000000000000c20      0x13d /home/holy/vscode_remote_setup/glibc-build/libc_pic.a(rawmemchr-avx2.os)
                0x0000000000000c20                __rawmemchr_avx2
 *fill*         0x0000000000000d5d        0x3 
 .text.avx      0x0000000000000d60      0x3d4 /home/holy/vscode_remote_setup/glibc-build/libc_pic.a(memcmp-avx2-movbe.os)
                0x0000000000000d60                __memcmp_avx2_movbe
 *fill*         0x0000000000001134        0xc 
 .text.avx      0x0000000000001140      0x224 /home/holy/vscode_remote_setup/glibc-build/libc_pic.a(strchr-avx2.os)
                0x0000000000001140                __strchr_avx2
 *fill*         0x0000000000001364        0xc 
 .text.avx      0x0000000000001370      0x18e /home/holy/vscode_remote_setup/glibc-build/libc_pic.a(strlen-avx2.os)
                0x0000000000001370                __strlen_avx2
 *fill*         0x00000000000014fe        0x2 
 .text.avx      0x0000000000001500      0x31e /home/holy/vscode_remote_setup/glibc-build/libc_pic.a(strnlen-avx2.os)
                0x0000000000001500                __strnlen_avx2
 *fill*         0x000000000000181e        0x2 
 .text.avx      0x0000000000001820      0x464 /home/holy/vscode_remote_setup/glibc-build/libc_pic.a(memmove-avx-unaligned-erms.os)
                0x0000000000001820                __mempcpy_chk_avx_unaligned
                0x0000000000001830                __mempcpy_avx_unaligned
                0x0000000000001840                __memcpy_chk_avx_unaligned
                0x0000000000001840                __memmove_chk_avx_unaligned
                0x0000000000001850                __memcpy_avx_unaligned
                0x0000000000001850                __memmove_avx_unaligned
                0x0000000000001880                __mempcpy_chk_avx_unaligned_erms
                0x0000000000001890                __mempcpy_avx_unaligned_erms
                0x00000000000018a0                __memmove_chk_avx_unaligned_erms
                0x00000000000018a0                __memcpy_chk_avx_unaligned_erms
                0x00000000000018b0                __memcpy_avx_unaligned_erms
                0x00000000000018b0                __memmove_avx_unaligned_erms
 *fill*         0x0000000000001c84        0xc 
 .text.avx      0x0000000000001c90      0x1ab /home/holy/vscode_remote_setup/glibc-build/libc_pic.a(memset-avx2-unaligned-erms.os)
                0x0000000000001c90                __wmemset_chk_avx2_unaligned
                0x0000000000001ca0                __wmemset_avx2_unaligned
                0x0000000000001cc0                __memset_chk_avx2_unaligned
                0x0000000000001cd0                __memset_avx2_unaligned
                0x0000000000001d00                __memset_avx2_erms
                0x0000000000001d20                __memset_chk_avx2_unaligned_erms
                0x0000000000001d30                __memset_avx2_unaligned_erms

.text.sse4.2    0x0000000000000000     0x111f
 .text.sse4.2   0x0000000000000000      0xfd9 /home/holy/vscode_remote_setup/glibc-build/libc_pic.a(strncmp-sse4_2.os)
                0x0000000000000000                __strncmp_sse42
 *fill*         0x0000000000000fd9        0x7 
 .text.sse4.2   0x0000000000000fe0      0x13f /home/holy/vscode_remote_setup/glibc-build/libc_pic.a(strcspn-c.os)
                0x0000000000000fe0                __strcspn_sse42

.text.sse4.1    0x0000000000000000     0x163e
 .text.sse4.1   0x0000000000000000     0x163e /home/holy/vscode_remote_setup/glibc-build/libc_pic.a(memcmp-sse4.os)
                0x0000000000000000                __memcmp_sse4_1

.text.avx512    0x0000000000000000     0x1171
 .text.avx512   0x0000000000000000      0x76b /home/holy/vscode_remote_setup/glibc-build/libc_pic.a(memmove-avx512-no-vzeroupper.os)
                0x0000000000000000                __mempcpy_chk_avx512_no_vzeroupper
                0x0000000000000010                __mempcpy_avx512_no_vzeroupper
                0x0000000000000020                __memcpy_chk_avx512_no_vzeroupper
                0x0000000000000020                __memmove_chk_avx512_no_vzeroupper
                0x0000000000000030                __memcpy_avx512_no_vzeroupper
                0x0000000000000030                __memmove_avx512_no_vzeroupper
 *fill*         0x000000000000076b        0x5 
 .text.avx512   0x0000000000000770      0x280 /home/holy/vscode_remote_setup/glibc-build/libc_pic.a(memset-avx512-no-vzeroupper.os)
                0x0000000000000770                __memset_chk_avx512_no_vzeroupper
                0x0000000000000780                __memset_avx512_no_vzeroupper
 .text.avx512   0x00000000000009f0      0x57c /home/holy/vscode_remote_setup/glibc-build/libc_pic.a(memmove-avx512-unaligned-erms.os)
                0x00000000000009f0                __mempcpy_chk_avx512_unaligned
                0x0000000000000a00                __mempcpy_avx512_unaligned
                0x0000000000000a10                __memcpy_chk_avx512_unaligned
                0x0000000000000a10                __memmove_chk_avx512_unaligned
                0x0000000000000a20                __memmove_avx512_unaligned
                0x0000000000000a20                __memcpy_avx512_unaligned
                0x0000000000000a60                __mempcpy_chk_avx512_unaligned_erms
                0x0000000000000a70                __mempcpy_avx512_unaligned_erms
                0x0000000000000a80                __memcpy_chk_avx512_unaligned_erms
                0x0000000000000a80                __memmove_chk_avx512_unaligned_erms
                0x0000000000000a90                __memmove_avx512_unaligned_erms
                0x0000000000000a90                __memcpy_avx512_unaligned_erms
 *fill*         0x0000000000000f6c        0x4 
 .text.avx512   0x0000000000000f70      0x201 /home/holy/vscode_remote_setup/glibc-build/libc_pic.a(memset-avx512-unaligned-erms.os)
                0x0000000000000f70                __wmemset_chk_avx512_unaligned
                0x0000000000000f80                __wmemset_avx512_unaligned
                0x0000000000000fa0                __memset_chk_avx512_unaligned
                0x0000000000000fb0                __memset_avx512_unaligned
                0x0000000000000ff0                __memset_avx512_erms
                0x0000000000001010                __memset_chk_avx512_unaligned_erms
                0x0000000000001020                __memset_avx512_unaligned_erms

.text.atom      0x0000000000000000     0x1a83
 .text.atom     0x0000000000000000      0x315 /home/holy/vscode_remote_setup/glibc-build/libc_pic.a(strchr-sse2-no-bsf.os)
                0x0000000000000000                __strchr_sse2_no_bsf
 *fill*         0x0000000000000315        0xb 
 .text.atom     0x0000000000000320     0x1763 /home/holy/vscode_remote_setup/glibc-build/libc_pic.a(memcmp-ssse3.os)
                0x0000000000000320                __memcmp_ssse3

.text.startup   0x0000000000000000      0x49f
 .text.startup  0x0000000000000000      0x49f /home/holy/vscode_remote_setup/glibc-build/libc_pic.a(cacheinfo.os)

.fini
 *(SORT(.fini))

.rodata         0x0000000000000000     0x11e0
 *(.rodata)
 .rodata        0x0000000000000000      0xd48 /home/holy/vscode_remote_setup/glibc-build/elf/dl-allobjs.os
                0x0000000000000ca0                __GI__itoa_lower_digits
                0x0000000000000ca0                _itoa_lower_digits
 .rodata        0x0000000000000d48       0x40 /home/holy/vscode_remote_setup/glibc-build/libc_pic.a(strcmp-sse2.os)
 .rodata        0x0000000000000d88       0x40 /home/holy/vscode_remote_setup/glibc-build/libc_pic.a(strcmp-ssse3.os)
 .rodata        0x0000000000000dc8       0x40 /home/holy/vscode_remote_setup/glibc-build/libc_pic.a(strncmp-sse2.os)
 .rodata        0x0000000000000e08       0x40 /home/holy/vscode_remote_setup/glibc-build/libc_pic.a(strncmp-ssse3.os)
 .rodata        0x0000000000000e48       0x80 /home/holy/vscode_remote_setup/glibc-build/libc_pic.a(stpcpy-sse2-unaligned.os)
 *fill*         0x0000000000000ec8        0x8 
 .rodata        0x0000000000000ed0       0x1f /home/holy/vscode_remote_setup/glibc-build/libc_pic.a(varshift.os)
                0x0000000000000ed0                ___m128i_shift_right
 *fill*         0x0000000000000eef       0x11 
 .rodata        0x0000000000000f00      0x2e0 /home/holy/vscode_remote_setup/glibc-build/libc_pic.a(cacheinfo.os)

.rodata.str1.1  0x0000000000000000     0x12d2
 .rodata.str1.1
                0x0000000000000000     0x1285 /home/holy/vscode_remote_setup/glibc-build/elf/dl-allobjs.os
 .rodata.str1.1
                0x0000000000001285       0x14 /home/holy/vscode_remote_setup/glibc-build/libc_pic.a(check_fds.os)
 .rodata.str1.1
                0x0000000000001299       0x39 /home/holy/vscode_remote_setup/glibc-build/libc_pic.a(cacheinfo.os)

.rodata.str1.8  0x0000000000000000     0x2553
 .rodata.str1.8
                0x0000000000000000     0x2541 /home/holy/vscode_remote_setup/glibc-build/elf/dl-allobjs.os
 *fill*         0x0000000000002541        0x7 
 .rodata.str1.8
                0x0000000000002548        0xb /home/holy/vscode_remote_setup/glibc-build/libc_pic.a(cacheinfo.os)

.rodata.str1.16
                0x0000000000000000      0x361
 .rodata.str1.16
                0x0000000000000000      0x346 /home/holy/vscode_remote_setup/glibc-build/elf/dl-allobjs.os
 *fill*         0x0000000000000346        0xa 
 .rodata.str1.16
                0x0000000000000350       0x11 /home/holy/vscode_remote_setup/glibc-build/libc_pic.a(cacheinfo.os)

.rodata.cst16   0x0000000000000000       0x20
 .rodata.cst16  0x0000000000000000       0x20 /home/holy/vscode_remote_setup/glibc-build/elf/dl-allobjs.os

.rodata.cst4    0x0000000000000000        0x4
 .rodata.cst4   0x0000000000000000        0x4 /home/holy/vscode_remote_setup/glibc-build/elf/dl-allobjs.os

.rodata.str1.32
                0x0000000000000000       0x3b
 .rodata.str1.32
                0x0000000000000000       0x3b /home/holy/vscode_remote_setup/glibc-build/elf/dl-allobjs.os

.rodata.sse4.2  0x0000000000000000       0x40
 .rodata.sse4.2
                0x0000000000000000       0x40 /home/holy/vscode_remote_setup/glibc-build/libc_pic.a(strncmp-sse4_2.os)

.rodata.sse4.1  0x0000000000000000      0x140
 .rodata.sse4.1
                0x0000000000000000      0x140 /home/holy/vscode_remote_setup/glibc-build/libc_pic.a(memcmp-sse4.os)

.rodata.ssse3   0x0000000000000000      0xd80
 .rodata.ssse3  0x0000000000000000      0x1c0 /home/holy/vscode_remote_setup/glibc-build/libc_pic.a(memcpy-ssse3.os)
 .rodata.ssse3  0x00000000000001c0      0x1c0 /home/holy/vscode_remote_setup/glibc-build/libc_pic.a(memmove-ssse3.os)
 .rodata.ssse3  0x0000000000000380      0x500 /home/holy/vscode_remote_setup/glibc-build/libc_pic.a(memcpy-ssse3-back.os)
 .rodata.ssse3  0x0000000000000880      0x500 /home/holy/vscode_remote_setup/glibc-build/libc_pic.a(memmove-ssse3-back.os)

.rodata1
 *(.rodata1)

.eh_frame_hdr
 *(.eh_frame_hdr)

.eh_frame       0x0000000000000000     0x4130
 *(.eh_frame)
 .eh_frame      0x0000000000000000     0x25c0 /home/holy/vscode_remote_setup/glibc-build/elf/dl-allobjs.os
 .eh_frame      0x00000000000025c0       0x68 /home/holy/vscode_remote_setup/glibc-build/libc_pic.a(check_fds.os)
 .eh_frame      0x0000000000002628       0x30 /home/holy/vscode_remote_setup/glibc-build/libc_pic.a(setjmp.os)
 .eh_frame      0x0000000000002658       0x48 /home/holy/vscode_remote_setup/glibc-build/libc_pic.a(__longjmp.os)
 .eh_frame      0x00000000000026a0       0x58 /home/holy/vscode_remote_setup/glibc-build/libc_pic.a(scratch_buffer_set_array_size.os)
 .eh_frame      0x00000000000026f8       0x48 /home/holy/vscode_remote_setup/glibc-build/libc_pic.a(strchr.os)
                                         0x40 (size before relaxing)
 .eh_frame      0x0000000000002740       0x48 /home/holy/vscode_remote_setup/glibc-build/libc_pic.a(strcmp.os)
                                         0x40 (size before relaxing)
 .eh_frame      0x0000000000002788       0x48 /home/holy/vscode_remote_setup/glibc-build/libc_pic.a(strcspn.os)
                                         0x40 (size before relaxing)
 .eh_frame      0x00000000000027d0       0x50 /home/holy/vscode_remote_setup/glibc-build/libc_pic.a(strdup.os)
 .eh_frame      0x0000000000002820       0x48 /home/holy/vscode_remote_setup/glibc-build/libc_pic.a(strlen.os)
                                         0x40 (size before relaxing)
 .eh_frame      0x0000000000002868       0x48 /home/holy/vscode_remote_setup/glibc-build/libc_pic.a(strnlen.os)
                                         0x40 (size before relaxing)
 .eh_frame      0x00000000000028b0       0x48 /home/holy/vscode_remote_setup/glibc-build/libc_pic.a(strncmp.os)
                                         0x40 (size before relaxing)
 .eh_frame      0x00000000000028f8       0x48 /home/holy/vscode_remote_setup/glibc-build/libc_pic.a(memchr.os)
                                         0x40 (size before relaxing)
 .eh_frame      0x0000000000002940       0x48 /home/holy/vscode_remote_setup/glibc-build/libc_pic.a(memcmp.os)
                                         0x40 (size before relaxing)
 .eh_frame      0x0000000000002988       0x48 /home/holy/vscode_remote_setup/glibc-build/libc_pic.a(memmove.os)
                                         0x40 (size before relaxing)
 .eh_frame      0x00000000000029d0       0x48 /home/holy/vscode_remote_setup/glibc-build/libc_pic.a(memset.os)
                                         0x40 (size before relaxing)
 .eh_frame      0x0000000000002a18       0x48 /home/holy/vscode_remote_setup/glibc-build/libc_pic.a(mempcpy.os)
                                         0x40 (size before relaxing)
 .eh_frame      0x0000000000002a60       0x48 /home/holy/vscode_remote_setup/glibc-build/libc_pic.a(stpcpy.os)
                                         0x40 (size before relaxing)
 .eh_frame      0x0000000000002aa8       0x48 /home/holy/vscode_remote_setup/glibc-build/libc_pic.a(memcpy.os)
                                         0x40 (size before relaxing)
 .eh_frame      0x0000000000002af0       0x48 /home/holy/vscode_remote_setup/glibc-build/libc_pic.a(rawmemchr.os)
                                         0x40 (size before relaxing)
 .eh_frame      0x0000000000002b38       0x30 /home/holy/vscode_remote_setup/glibc-build/libc_pic.a(strcmp-sse2.os)
 .eh_frame      0x0000000000002b68       0x30 /home/holy/vscode_remote_setup/glibc-build/libc_pic.a(strcmp-sse2-unaligned.os)
 .eh_frame      0x0000000000002b98       0x30 /home/holy/vscode_remote_setup/glibc-build/libc_pic.a(strcmp-ssse3.os)
 .eh_frame      0x0000000000002bc8       0x30 /home/holy/vscode_remote_setup/glibc-build/libc_pic.a(strcmp-avx2.os)
 .eh_frame      0x0000000000002bf8       0x30 /home/holy/vscode_remote_setup/glibc-build/libc_pic.a(strncmp-sse2.os)
 .eh_frame      0x0000000000002c28       0x30 /home/holy/vscode_remote_setup/glibc-build/libc_pic.a(strncmp-ssse3.os)
 .eh_frame      0x0000000000002c58       0x30 /home/holy/vscode_remote_setup/glibc-build/libc_pic.a(strncmp-sse4_2.os)
 .eh_frame      0x0000000000002c88       0x30 /home/holy/vscode_remote_setup/glibc-build/libc_pic.a(strncmp-avx2.os)
 .eh_frame      0x0000000000002cb8       0x30 /home/holy/vscode_remote_setup/glibc-build/libc_pic.a(memchr-sse2.os)
 .eh_frame      0x0000000000002ce8       0x30 /home/holy/vscode_remote_setup/glibc-build/libc_pic.a(rawmemchr-sse2.os)
 .eh_frame      0x0000000000002d18       0x30 /home/holy/vscode_remote_setup/glibc-build/libc_pic.a(memchr-avx2.os)
 .eh_frame      0x0000000000002d48       0x30 /home/holy/vscode_remote_setup/glibc-build/libc_pic.a(rawmemchr-avx2.os)
 .eh_frame      0x0000000000002d78       0x30 /home/holy/vscode_remote_setup/glibc-build/libc_pic.a(memcmp-sse2.os)
 .eh_frame      0x0000000000002da8       0x30 /home/holy/vscode_remote_setup/glibc-build/libc_pic.a(memcmp-avx2-movbe.os)
 .eh_frame      0x0000000000002dd8       0x30 /home/holy/vscode_remote_setup/glibc-build/libc_pic.a(memcmp-sse4.os)
 .eh_frame      0x0000000000002e08       0x78 /home/holy/vscode_remote_setup/glibc-build/libc_pic.a(memcpy-ssse3.os)
                                         0x68 (size before relaxing)
 .eh_frame      0x0000000000002e80       0x48 /home/holy/vscode_remote_setup/glibc-build/libc_pic.a(memmove-ssse3.os)
                                         0x40 (size before relaxing)
 .eh_frame      0x0000000000002ec8       0x78 /home/holy/vscode_remote_setup/glibc-build/libc_pic.a(memcpy-ssse3-back.os)
                                         0x68 (size before relaxing)
 .eh_frame      0x0000000000002f40       0x48 /home/holy/vscode_remote_setup/glibc-build/libc_pic.a(memmove-ssse3-back.os)
                                         0x40 (size before relaxing)
 .eh_frame      0x0000000000002f88       0x78 /home/holy/vscode_remote_setup/glibc-build/libc_pic.a(memmove-avx512-no-vzeroupper.os)
                                         0x68 (size before relaxing)
 .eh_frame      0x0000000000003000       0x30 /home/holy/vscode_remote_setup/glibc-build/libc_pic.a(strchr-sse2.os)
 .eh_frame      0x0000000000003030       0x30 /home/holy/vscode_remote_setup/glibc-build/libc_pic.a(strchr-avx2.os)
 .eh_frame      0x0000000000003060       0x30 /home/holy/vscode_remote_setup/glibc-build/libc_pic.a(strlen-sse2.os)
 .eh_frame      0x0000000000003090       0x30 /home/holy/vscode_remote_setup/glibc-build/libc_pic.a(strnlen-sse2.os)
 .eh_frame      0x00000000000030c0       0x30 /home/holy/vscode_remote_setup/glibc-build/libc_pic.a(strlen-avx2.os)
 .eh_frame      0x00000000000030f0       0x30 /home/holy/vscode_remote_setup/glibc-build/libc_pic.a(strnlen-avx2.os)
 .eh_frame      0x0000000000003120       0x30 /home/holy/vscode_remote_setup/glibc-build/libc_pic.a(stpcpy-sse2.os)
 .eh_frame      0x0000000000003150       0x30 /home/holy/vscode_remote_setup/glibc-build/libc_pic.a(stpcpy-ssse3.os)
 .eh_frame      0x0000000000003180       0x30 /home/holy/vscode_remote_setup/glibc-build/libc_pic.a(stpcpy-sse2-unaligned.os)
 .eh_frame      0x00000000000031b0       0x30 /home/holy/vscode_remote_setup/glibc-build/libc_pic.a(strchr-sse2-no-bsf.os)
 .eh_frame      0x00000000000031e0       0x30 /home/holy/vscode_remote_setup/glibc-build/libc_pic.a(memcmp-ssse3.os)
 .eh_frame      0x0000000000003210       0x38 /home/holy/vscode_remote_setup/glibc-build/libc_pic.a(strcspn-sse2.os)
 .eh_frame      0x0000000000003248       0x30 /home/holy/vscode_remote_setup/glibc-build/libc_pic.a(strcspn-c.os)
 .eh_frame      0x0000000000003278       0x48 /home/holy/vscode_remote_setup/glibc-build/libc_pic.a(memset-avx512-no-vzeroupper.os)
                                         0x40 (size before relaxing)
 .eh_frame      0x00000000000032c0      0x138 /home/holy/vscode_remote_setup/glibc-build/libc_pic.a(memmove-sse2-unaligned-erms.os)
                                        0x108 (size before relaxing)
 .eh_frame      0x00000000000033f8       0xd8 /home/holy/vscode_remote_setup/glibc-build/libc_pic.a(memmove-avx-unaligned-erms.os)
                                         0xb8 (size before relaxing)
 .eh_frame      0x00000000000034d0       0xd8 /home/holy/vscode_remote_setup/glibc-build/libc_pic.a(memmove-avx512-unaligned-erms.os)
                                         0xb8 (size before relaxing)
 .eh_frame      0x00000000000035a8       0xf0 /home/holy/vscode_remote_setup/glibc-build/libc_pic.a(memset-sse2-unaligned-erms.os)
                                         0xd0 (size before relaxing)
 .eh_frame      0x0000000000003698       0xc0 /home/holy/vscode_remote_setup/glibc-build/libc_pic.a(memset-avx2-unaligned-erms.os)
                                         0xa8 (size before relaxing)
 .eh_frame      0x0000000000003758       0xc0 /home/holy/vscode_remote_setup/glibc-build/libc_pic.a(memset-avx512-unaligned-erms.os)
                                         0xa8 (size before relaxing)
 .eh_frame      0x0000000000003818      0x1c8 /home/holy/vscode_remote_setup/glibc-build/libc_pic.a(cacheinfo.os)
                                        0x1c0 (size before relaxing)
 .eh_frame      0x00000000000039e0       0x38 /home/holy/vscode_remote_setup/glibc-build/libc_pic.a(closedir.os)
 .eh_frame      0x0000000000003a18       0x40 /home/holy/vscode_remote_setup/glibc-build/libc_pic.a(rewinddir.os)
 .eh_frame      0x0000000000003a58       0x68 /home/holy/vscode_remote_setup/glibc-build/libc_pic.a(readdir64.os)
 .eh_frame      0x0000000000003ac0       0x50 /home/holy/vscode_remote_setup/glibc-build/libc_pic.a(fdopendir.os)
 .eh_frame      0x0000000000003b10       0x30 /home/holy/vscode_remote_setup/glibc-build/libc_pic.a(uname.os)
 .eh_frame      0x0000000000003b40       0x30 /home/holy/vscode_remote_setup/glibc-build/libc_pic.a(_exit.os)
 .eh_frame      0x0000000000003b70       0x30 /home/holy/vscode_remote_setup/glibc-build/libc_pic.a(getpid.os)
 .eh_frame      0x0000000000003ba0       0x30 /home/holy/vscode_remote_setup/glibc-build/libc_pic.a(xstat.os)
 .eh_frame      0x0000000000003bd0       0x30 /home/holy/vscode_remote_setup/glibc-build/libc_pic.a(fxstat.os)
 .eh_frame      0x0000000000003c00       0x30 /home/holy/vscode_remote_setup/glibc-build/libc_pic.a(lxstat.os)
 .eh_frame      0x0000000000003c30       0x30 /home/holy/vscode_remote_setup/glibc-build/libc_pic.a(lseek64.os)
 .eh_frame      0x0000000000003c60       0x30 /home/holy/vscode_remote_setup/glibc-build/libc_pic.a(access.os)
 .eh_frame      0x0000000000003c90       0x30 /home/holy/vscode_remote_setup/glibc-build/libc_pic.a(close_nocancel.os)
 .eh_frame      0x0000000000003cc0       0x48 /home/holy/vscode_remote_setup/glibc-build/libc_pic.a(fcntl_nocancel.os)
 .eh_frame      0x0000000000003d08       0x30 /home/holy/vscode_remote_setup/glibc-build/libc_pic.a(open64_nocancel.os)
 .eh_frame      0x0000000000003d38       0x30 /home/holy/vscode_remote_setup/glibc-build/libc_pic.a(openat64_nocancel.os)
 .eh_frame      0x0000000000003d68       0x30 /home/holy/vscode_remote_setup/glibc-build/libc_pic.a(read_nocancel.os)
 .eh_frame      0x0000000000003d98       0x30 /home/holy/vscode_remote_setup/glibc-build/libc_pic.a(write_nocancel.os)
 .eh_frame      0x0000000000003dc8       0x70 /home/holy/vscode_remote_setup/glibc-build/libc_pic.a(mmap64.os)
 .eh_frame      0x0000000000003e38       0x30 /home/holy/vscode_remote_setup/glibc-build/libc_pic.a(munmap.os)
 .eh_frame      0x0000000000003e68       0x30 /home/holy/vscode_remote_setup/glibc-build/libc_pic.a(mprotect.os)
 .eh_frame      0x0000000000003e98       0x80 /home/holy/vscode_remote_setup/glibc-build/libc_pic.a(profil.os)
 .eh_frame      0x0000000000003f18       0x30 /home/holy/vscode_remote_setup/glibc-build/libc_pic.a(prof-freq.os)
 .eh_frame      0x0000000000003f48       0x68 /home/holy/vscode_remote_setup/glibc-build/libc_pic.a(libc-lowlevellock.os)
                                         0x60 (size before relaxing)
 .eh_frame      0x0000000000003fb0       0x30 /home/holy/vscode_remote_setup/glibc-build/libc_pic.a(dl-addr-obj.os)
 .eh_frame      0x0000000000003fe0       0xf0 /home/holy/vscode_remote_setup/glibc-build/libc_pic.a(sigaction.os)
                                         0xe8 (size before relaxing)
 .eh_frame      0x00000000000040d0       0x30 /home/holy/vscode_remote_setup/glibc-build/libc_pic.a(setitimer.os)
 .eh_frame      0x0000000000004100       0x30 /home/holy/vscode_remote_setup/glibc-build/libc_pic.a(getdents64.os)

.gcc_except_table
 *(.gcc_except_table .gcc_except_table.*)

.gnu_extab
 *(.gnu_extab*)

.exception_ranges
 *(.exception_ranges .exception_ranges*)

.eh_frame
 *(.eh_frame)

.gnu_extab
 *(.gnu_extab)

.gcc_except_table
 *(.gcc_except_table .gcc_except_table.*)

.exception_ranges
 *(.exception_ranges .exception_ranges*)

.tdata
 *(.tdata)

.tbss           0x0000000000000000        0x4
 *(.tbss)
 .tbss          0x0000000000000000        0x4 /home/holy/vscode_remote_setup/glibc-build/libc_pic.a(errno.os)
                0x0000000000000000                errno
                0x0000000000000000                __libc_errno

.preinit_array
 *(.preinit_array)

.jcr
 *(.jcr)

.dynamic
 *(.dynamic)

.got
 *(.got)
 *(.igot)

.got.plt
 *(.got.plt)
 *(.igot.plt)

.data           0x0000000000000000      0xfd8
 *(.data)
 .data          0x0000000000000000      0xf98 /home/holy/vscode_remote_setup/glibc-build/elf/dl-allobjs.os
                0x0000000000000000                _rtld_global
                0x0000000000000000                _rtld_local
 .data          0x0000000000000f98        0x0 /home/holy/vscode_remote_setup/glibc-build/libc_pic.a(check_fds.os)
 .data          0x0000000000000f98        0x0 /home/holy/vscode_remote_setup/glibc-build/libc_pic.a(errno.os)
 .data          0x0000000000000f98        0x0 /home/holy/vscode_remote_setup/glibc-build/libc_pic.a(setjmp.os)
 .data          0x0000000000000f98        0x0 /home/holy/vscode_remote_setup/glibc-build/libc_pic.a(__longjmp.os)
 .data          0x0000000000000f98        0x0 /home/holy/vscode_remote_setup/glibc-build/libc_pic.a(scratch_buffer_set_array_size.os)
 .data          0x0000000000000f98        0x0 /home/holy/vscode_remote_setup/glibc-build/libc_pic.a(strchr.os)
 .data          0x0000000000000f98        0x0 /home/holy/vscode_remote_setup/glibc-build/libc_pic.a(strcmp.os)
 .data          0x0000000000000f98        0x0 /home/holy/vscode_remote_setup/glibc-build/libc_pic.a(strcspn.os)
 .data          0x0000000000000f98        0x0 /home/holy/vscode_remote_setup/glibc-build/libc_pic.a(strdup.os)
 .data          0x0000000000000f98        0x0 /home/holy/vscode_remote_setup/glibc-build/libc_pic.a(strlen.os)
 .data          0x0000000000000f98        0x0 /home/holy/vscode_remote_setup/glibc-build/libc_pic.a(strnlen.os)
 .data          0x0000000000000f98        0x0 /home/holy/vscode_remote_setup/glibc-build/libc_pic.a(strncmp.os)
 .data          0x0000000000000f98        0x0 /home/holy/vscode_remote_setup/glibc-build/libc_pic.a(memchr.os)
 .data          0x0000000000000f98        0x0 /home/holy/vscode_remote_setup/glibc-build/libc_pic.a(memcmp.os)
 .data          0x0000000000000f98        0x0 /home/holy/vscode_remote_setup/glibc-build/libc_pic.a(memmove.os)
 .data          0x0000000000000f98        0x0 /home/holy/vscode_remote_setup/glibc-build/libc_pic.a(memset.os)
 .data          0x0000000000000f98        0x0 /home/holy/vscode_remote_setup/glibc-build/libc_pic.a(mempcpy.os)
 .data          0x0000000000000f98        0x0 /home/holy/vscode_remote_setup/glibc-build/libc_pic.a(stpcpy.os)
 .data          0x0000000000000f98        0x0 /home/holy/vscode_remote_setup/glibc-build/libc_pic.a(memcpy.os)
 .data          0x0000000000000f98        0x0 /home/holy/vscode_remote_setup/glibc-build/libc_pic.a(rawmemchr.os)
 .data          0x0000000000000f98        0x0 /home/holy/vscode_remote_setup/glibc-build/libc_pic.a(strcmp-sse2.os)
 .data          0x0000000000000f98        0x0 /home/holy/vscode_remote_setup/glibc-build/libc_pic.a(strcmp-sse2-unaligned.os)
 .data          0x0000000000000f98        0x0 /home/holy/vscode_remote_setup/glibc-build/libc_pic.a(strcmp-ssse3.os)
 .data          0x0000000000000f98        0x0 /home/holy/vscode_remote_setup/glibc-build/libc_pic.a(strcmp-avx2.os)
 .data          0x0000000000000f98        0x0 /home/holy/vscode_remote_setup/glibc-build/libc_pic.a(strncmp-sse2.os)
 .data          0x0000000000000f98        0x0 /home/holy/vscode_remote_setup/glibc-build/libc_pic.a(strncmp-ssse3.os)
 .data          0x0000000000000f98        0x0 /home/holy/vscode_remote_setup/glibc-build/libc_pic.a(strncmp-sse4_2.os)
 .data          0x0000000000000f98        0x0 /home/holy/vscode_remote_setup/glibc-build/libc_pic.a(strncmp-avx2.os)
 .data          0x0000000000000f98        0x0 /home/holy/vscode_remote_setup/glibc-build/libc_pic.a(memchr-sse2.os)
 .data          0x0000000000000f98        0x0 /home/holy/vscode_remote_setup/glibc-build/libc_pic.a(rawmemchr-sse2.os)
 .data          0x0000000000000f98        0x0 /home/holy/vscode_remote_setup/glibc-build/libc_pic.a(memchr-avx2.os)
 .data          0x0000000000000f98        0x0 /home/holy/vscode_remote_setup/glibc-build/libc_pic.a(rawmemchr-avx2.os)
 .data          0x0000000000000f98        0x0 /home/holy/vscode_remote_setup/glibc-build/libc_pic.a(memcmp-sse2.os)
 .data          0x0000000000000f98        0x0 /home/holy/vscode_remote_setup/glibc-build/libc_pic.a(memcmp-avx2-movbe.os)
 .data          0x0000000000000f98        0x0 /home/holy/vscode_remote_setup/glibc-build/libc_pic.a(memcmp-sse4.os)
 .data          0x0000000000000f98        0x0 /home/holy/vscode_remote_setup/glibc-build/libc_pic.a(memcpy-ssse3.os)
 .data          0x0000000000000f98        0x0 /home/holy/vscode_remote_setup/glibc-build/libc_pic.a(memmove-ssse3.os)
 .data          0x0000000000000f98        0x0 /home/holy/vscode_remote_setup/glibc-build/libc_pic.a(memcpy-ssse3-back.os)
 .data          0x0000000000000f98        0x0 /home/holy/vscode_remote_setup/glibc-build/libc_pic.a(memmove-ssse3-back.os)
 .data          0x0000000000000f98        0x0 /home/holy/vscode_remote_setup/glibc-build/libc_pic.a(memmove-avx512-no-vzeroupper.os)
 .data          0x0000000000000f98        0x0 /home/holy/vscode_remote_setup/glibc-build/libc_pic.a(strchr-sse2.os)
 .data          0x0000000000000f98        0x0 /home/holy/vscode_remote_setup/glibc-build/libc_pic.a(strchr-avx2.os)
 .data          0x0000000000000f98        0x0 /home/holy/vscode_remote_setup/glibc-build/libc_pic.a(strlen-sse2.os)
 .data          0x0000000000000f98        0x0 /home/holy/vscode_remote_setup/glibc-build/libc_pic.a(strnlen-sse2.os)
 .data          0x0000000000000f98        0x0 /home/holy/vscode_remote_setup/glibc-build/libc_pic.a(strlen-avx2.os)
 .data          0x0000000000000f98        0x0 /home/holy/vscode_remote_setup/glibc-build/libc_pic.a(strnlen-avx2.os)
 .data          0x0000000000000f98        0x0 /home/holy/vscode_remote_setup/glibc-build/libc_pic.a(stpcpy-sse2.os)
 .data          0x0000000000000f98        0x0 /home/holy/vscode_remote_setup/glibc-build/libc_pic.a(stpcpy-ssse3.os)
 .data          0x0000000000000f98        0x0 /home/holy/vscode_remote_setup/glibc-build/libc_pic.a(stpcpy-sse2-unaligned.os)
 .data          0x0000000000000f98        0x0 /home/holy/vscode_remote_setup/glibc-build/libc_pic.a(strchr-sse2-no-bsf.os)
 .data          0x0000000000000f98        0x0 /home/holy/vscode_remote_setup/glibc-build/libc_pic.a(memcmp-ssse3.os)
 .data          0x0000000000000f98        0x0 /home/holy/vscode_remote_setup/glibc-build/libc_pic.a(strcspn-sse2.os)
 .data          0x0000000000000f98        0x0 /home/holy/vscode_remote_setup/glibc-build/libc_pic.a(strcspn-c.os)
 .data          0x0000000000000f98        0x0 /home/holy/vscode_remote_setup/glibc-build/libc_pic.a(varshift.os)
 .data          0x0000000000000f98        0x0 /home/holy/vscode_remote_setup/glibc-build/libc_pic.a(memset-avx512-no-vzeroupper.os)
 .data          0x0000000000000f98        0x0 /home/holy/vscode_remote_setup/glibc-build/libc_pic.a(memmove-sse2-unaligned-erms.os)
 .data          0x0000000000000f98        0x0 /home/holy/vscode_remote_setup/glibc-build/libc_pic.a(memmove-avx-unaligned-erms.os)
 .data          0x0000000000000f98        0x0 /home/holy/vscode_remote_setup/glibc-build/libc_pic.a(memmove-avx512-unaligned-erms.os)
 .data          0x0000000000000f98        0x0 /home/holy/vscode_remote_setup/glibc-build/libc_pic.a(memset-sse2-unaligned-erms.os)
 .data          0x0000000000000f98        0x0 /home/holy/vscode_remote_setup/glibc-build/libc_pic.a(memset-avx2-unaligned-erms.os)
 .data          0x0000000000000f98        0x0 /home/holy/vscode_remote_setup/glibc-build/libc_pic.a(memset-avx512-unaligned-erms.os)
 .data          0x0000000000000f98       0x40 /home/holy/vscode_remote_setup/glibc-build/libc_pic.a(cacheinfo.os)
                0x0000000000000f98                __x86_raw_shared_cache_size
                0x0000000000000fa0                __x86_raw_shared_cache_size_half
                0x0000000000000fa8                __x86_shared_cache_size
                0x0000000000000fb0                __x86_shared_cache_size_half
                0x0000000000000fb8                __x86_raw_data_cache_size
                0x0000000000000fc0                __x86_raw_data_cache_size_half
                0x0000000000000fc8                __x86_data_cache_size
                0x0000000000000fd0                __x86_data_cache_size_half
 .data          0x0000000000000fd8        0x0 /home/holy/vscode_remote_setup/glibc-build/libc_pic.a(closedir.os)
 .data          0x0000000000000fd8        0x0 /home/holy/vscode_remote_setup/glibc-build/libc_pic.a(rewinddir.os)
 .data          0x0000000000000fd8        0x0 /home/holy/vscode_remote_setup/glibc-build/libc_pic.a(readdir64.os)
 .data          0x0000000000000fd8        0x0 /home/holy/vscode_remote_setup/glibc-build/libc_pic.a(fdopendir.os)
 .data          0x0000000000000fd8        0x0 /home/holy/vscode_remote_setup/glibc-build/libc_pic.a(uname.os)
 .data          0x0000000000000fd8        0x0 /home/holy/vscode_remote_setup/glibc-build/libc_pic.a(_exit.os)
 .data          0x0000000000000fd8        0x0 /home/holy/vscode_remote_setup/glibc-build/libc_pic.a(getpid.os)
 .data          0x0000000000000fd8        0x0 /home/holy/vscode_remote_setup/glibc-build/libc_pic.a(environ.os)
 .data          0x0000000000000fd8        0x0 /home/holy/vscode_remote_setup/glibc-build/libc_pic.a(xstat.os)
 .data          0x0000000000000fd8        0x0 /home/holy/vscode_remote_setup/glibc-build/libc_pic.a(fxstat.os)
 .data          0x0000000000000fd8        0x0 /home/holy/vscode_remote_setup/glibc-build/libc_pic.a(lxstat.os)
 .data          0x0000000000000fd8        0x0 /home/holy/vscode_remote_setup/glibc-build/libc_pic.a(lseek64.os)
 .data          0x0000000000000fd8        0x0 /home/holy/vscode_remote_setup/glibc-build/libc_pic.a(access.os)
 .data          0x0000000000000fd8        0x0 /home/holy/vscode_remote_setup/glibc-build/libc_pic.a(close_nocancel.os)
 .data          0x0000000000000fd8        0x0 /home/holy/vscode_remote_setup/glibc-build/libc_pic.a(fcntl_nocancel.os)
 .data          0x0000000000000fd8        0x0 /home/holy/vscode_remote_setup/glibc-build/libc_pic.a(open64_nocancel.os)
 .data          0x0000000000000fd8        0x0 /home/holy/vscode_remote_setup/glibc-build/libc_pic.a(openat64_nocancel.os)
 .data          0x0000000000000fd8        0x0 /home/holy/vscode_remote_setup/glibc-build/libc_pic.a(read_nocancel.os)
 .data          0x0000000000000fd8        0x0 /home/holy/vscode_remote_setup/glibc-build/libc_pic.a(write_nocancel.os)
 .data          0x0000000000000fd8        0x0 /home/holy/vscode_remote_setup/glibc-build/libc_pic.a(mmap64.os)
 .data          0x0000000000000fd8        0x0 /home/holy/vscode_remote_setup/glibc-build/libc_pic.a(munmap.os)
 .data          0x0000000000000fd8        0x0 /home/holy/vscode_remote_setup/glibc-build/libc_pic.a(mprotect.os)
 .data          0x0000000000000fd8        0x0 /home/holy/vscode_remote_setup/glibc-build/libc_pic.a(profil.os)
 .data          0x0000000000000fd8        0x0 /home/holy/vscode_remote_setup/glibc-build/libc_pic.a(prof-freq.os)
 .data          0x0000000000000fd8        0x0 /home/holy/vscode_remote_setup/glibc-build/libc_pic.a(libc-lowlevellock.os)
 .data          0x0000000000000fd8        0x0 /home/holy/vscode_remote_setup/glibc-build/libc_pic.a(libc_multiple_threads.os)
 .data          0x0000000000000fd8        0x0 /home/holy/vscode_remote_setup/glibc-build/libc_pic.a(dl-addr-obj.os)
 .data          0x0000000000000fd8        0x0 /home/holy/vscode_remote_setup/glibc-build/libc_pic.a(sigaction.os)
 .data          0x0000000000000fd8        0x0 /home/holy/vscode_remote_setup/glibc-build/libc_pic.a(setitimer.os)
 .data          0x0000000000000fd8        0x0 /home/holy/vscode_remote_setup/glibc-build/libc_pic.a(getdents64.os)

.data.rel.ro    0x0000000000000000      0x834
 .data.rel.ro   0x0000000000000000      0x834 /home/holy/vscode_remote_setup/glibc-build/elf/dl-allobjs.os
                0x00000000000000b0                __pointer_chk_guard_local
                0x00000000000000b8                _dl_skip_args
                0x00000000000000c0                __GI__dl_argv
                0x00000000000000c0                _dl_argv
                0x00000000000000c8                _dl_argc
                0x00000000000000e0                _rtld_global_ro
                0x00000000000000e0                _rtld_local_ro
                0x00000000000002d0                __stack_prot
                0x0000000000000820                _dl_random
                0x0000000000000828                __libc_stack_end
                0x0000000000000828                __GI___libc_stack_end
                0x0000000000000830                __GI___libc_enable_secure
                0x0000000000000830                __libc_enable_secure

.init_array     0x0000000000000000        0x8
 .init_array    0x0000000000000000        0x8 /home/holy/vscode_remote_setup/glibc-build/libc_pic.a(cacheinfo.os)

.data1
 *(.data1)

.bss            0x0000000000000000      0x200
 *(.dynbss)
 *(.bss)
 .bss           0x0000000000000000      0x118 /home/holy/vscode_remote_setup/glibc-build/elf/dl-allobjs.os
                0x00000000000000e0                __libc_multiple_libcs
                0x0000000000000110                __curbrk
 .bss           0x0000000000000118        0x0 /home/holy/vscode_remote_setup/glibc-build/libc_pic.a(check_fds.os)
 .bss           0x0000000000000118        0x0 /home/holy/vscode_remote_setup/glibc-build/libc_pic.a(errno.os)
 .bss           0x0000000000000118        0x0 /home/holy/vscode_remote_setup/glibc-build/libc_pic.a(setjmp.os)
 .bss           0x0000000000000118        0x0 /home/holy/vscode_remote_setup/glibc-build/libc_pic.a(__longjmp.os)
 .bss           0x0000000000000118        0x0 /home/holy/vscode_remote_setup/glibc-build/libc_pic.a(scratch_buffer_set_array_size.os)
 .bss           0x0000000000000118        0x0 /home/holy/vscode_remote_setup/glibc-build/libc_pic.a(strchr.os)
 .bss           0x0000000000000118        0x0 /home/holy/vscode_remote_setup/glibc-build/libc_pic.a(strcmp.os)
 .bss           0x0000000000000118        0x0 /home/holy/vscode_remote_setup/glibc-build/libc_pic.a(strcspn.os)
 .bss           0x0000000000000118        0x0 /home/holy/vscode_remote_setup/glibc-build/libc_pic.a(strdup.os)
 .bss           0x0000000000000118        0x0 /home/holy/vscode_remote_setup/glibc-build/libc_pic.a(strlen.os)
 .bss           0x0000000000000118        0x0 /home/holy/vscode_remote_setup/glibc-build/libc_pic.a(strnlen.os)
 .bss           0x0000000000000118        0x0 /home/holy/vscode_remote_setup/glibc-build/libc_pic.a(strncmp.os)
 .bss           0x0000000000000118        0x0 /home/holy/vscode_remote_setup/glibc-build/libc_pic.a(memchr.os)
 .bss           0x0000000000000118        0x0 /home/holy/vscode_remote_setup/glibc-build/libc_pic.a(memcmp.os)
 .bss           0x0000000000000118        0x0 /home/holy/vscode_remote_setup/glibc-build/libc_pic.a(memmove.os)
 .bss           0x0000000000000118        0x0 /home/holy/vscode_remote_setup/glibc-build/libc_pic.a(memset.os)
 .bss           0x0000000000000118        0x0 /home/holy/vscode_remote_setup/glibc-build/libc_pic.a(mempcpy.os)
 .bss           0x0000000000000118        0x0 /home/holy/vscode_remote_setup/glibc-build/libc_pic.a(stpcpy.os)
 .bss           0x0000000000000118        0x0 /home/holy/vscode_remote_setup/glibc-build/libc_pic.a(memcpy.os)
 .bss           0x0000000000000118        0x0 /home/holy/vscode_remote_setup/glibc-build/libc_pic.a(rawmemchr.os)
 .bss           0x0000000000000118        0x0 /home/holy/vscode_remote_setup/glibc-build/libc_pic.a(strcmp-sse2.os)
 .bss           0x0000000000000118        0x0 /home/holy/vscode_remote_setup/glibc-build/libc_pic.a(strcmp-sse2-unaligned.os)
 .bss           0x0000000000000118        0x0 /home/holy/vscode_remote_setup/glibc-build/libc_pic.a(strcmp-ssse3.os)
 .bss           0x0000000000000118        0x0 /home/holy/vscode_remote_setup/glibc-build/libc_pic.a(strcmp-avx2.os)
 .bss           0x0000000000000118        0x0 /home/holy/vscode_remote_setup/glibc-build/libc_pic.a(strncmp-sse2.os)
 .bss           0x0000000000000118        0x0 /home/holy/vscode_remote_setup/glibc-build/libc_pic.a(strncmp-ssse3.os)
 .bss           0x0000000000000118        0x0 /home/holy/vscode_remote_setup/glibc-build/libc_pic.a(strncmp-sse4_2.os)
 .bss           0x0000000000000118        0x0 /home/holy/vscode_remote_setup/glibc-build/libc_pic.a(strncmp-avx2.os)
 .bss           0x0000000000000118        0x0 /home/holy/vscode_remote_setup/glibc-build/libc_pic.a(memchr-sse2.os)
 .bss           0x0000000000000118        0x0 /home/holy/vscode_remote_setup/glibc-build/libc_pic.a(rawmemchr-sse2.os)
 .bss           0x0000000000000118        0x0 /home/holy/vscode_remote_setup/glibc-build/libc_pic.a(memchr-avx2.os)
 .bss           0x0000000000000118        0x0 /home/holy/vscode_remote_setup/glibc-build/libc_pic.a(rawmemchr-avx2.os)
 .bss           0x0000000000000118        0x0 /home/holy/vscode_remote_setup/glibc-build/libc_pic.a(memcmp-sse2.os)
 .bss           0x0000000000000118        0x0 /home/holy/vscode_remote_setup/glibc-build/libc_pic.a(memcmp-avx2-movbe.os)
 .bss           0x0000000000000118        0x0 /home/holy/vscode_remote_setup/glibc-build/libc_pic.a(memcmp-sse4.os)
 .bss           0x0000000000000118        0x0 /home/holy/vscode_remote_setup/glibc-build/libc_pic.a(memcpy-ssse3.os)
 .bss           0x0000000000000118        0x0 /home/holy/vscode_remote_setup/glibc-build/libc_pic.a(memmove-ssse3.os)
 .bss           0x0000000000000118        0x0 /home/holy/vscode_remote_setup/glibc-build/libc_pic.a(memcpy-ssse3-back.os)
 .bss           0x0000000000000118        0x0 /home/holy/vscode_remote_setup/glibc-build/libc_pic.a(memmove-ssse3-back.os)
 .bss           0x0000000000000118        0x0 /home/holy/vscode_remote_setup/glibc-build/libc_pic.a(memmove-avx512-no-vzeroupper.os)
 .bss           0x0000000000000118        0x0 /home/holy/vscode_remote_setup/glibc-build/libc_pic.a(strchr-sse2.os)
 .bss           0x0000000000000118        0x0 /home/holy/vscode_remote_setup/glibc-build/libc_pic.a(strchr-avx2.os)
 .bss           0x0000000000000118        0x0 /home/holy/vscode_remote_setup/glibc-build/libc_pic.a(strlen-sse2.os)
 .bss           0x0000000000000118        0x0 /home/holy/vscode_remote_setup/glibc-build/libc_pic.a(strnlen-sse2.os)
 .bss           0x0000000000000118        0x0 /home/holy/vscode_remote_setup/glibc-build/libc_pic.a(strlen-avx2.os)
 .bss           0x0000000000000118        0x0 /home/holy/vscode_remote_setup/glibc-build/libc_pic.a(strnlen-avx2.os)
 .bss           0x0000000000000118        0x0 /home/holy/vscode_remote_setup/glibc-build/libc_pic.a(stpcpy-sse2.os)
 .bss           0x0000000000000118        0x0 /home/holy/vscode_remote_setup/glibc-build/libc_pic.a(stpcpy-ssse3.os)
 .bss           0x0000000000000118        0x0 /home/holy/vscode_remote_setup/glibc-build/libc_pic.a(stpcpy-sse2-unaligned.os)
 .bss           0x0000000000000118        0x0 /home/holy/vscode_remote_setup/glibc-build/libc_pic.a(strchr-sse2-no-bsf.os)
 .bss           0x0000000000000118        0x0 /home/holy/vscode_remote_setup/glibc-build/libc_pic.a(memcmp-ssse3.os)
 .bss           0x0000000000000118        0x0 /home/holy/vscode_remote_setup/glibc-build/libc_pic.a(strcspn-sse2.os)
 .bss           0x0000000000000118        0x0 /home/holy/vscode_remote_setup/glibc-build/libc_pic.a(strcspn-c.os)
 .bss           0x0000000000000118        0x0 /home/holy/vscode_remote_setup/glibc-build/libc_pic.a(varshift.os)
 .bss           0x0000000000000118        0x0 /home/holy/vscode_remote_setup/glibc-build/libc_pic.a(memset-avx512-no-vzeroupper.os)
 .bss           0x0000000000000118        0x0 /home/holy/vscode_remote_setup/glibc-build/libc_pic.a(memmove-sse2-unaligned-erms.os)
 .bss           0x0000000000000118        0x0 /home/holy/vscode_remote_setup/glibc-build/libc_pic.a(memmove-avx-unaligned-erms.os)
 .bss           0x0000000000000118        0x0 /home/holy/vscode_remote_setup/glibc-build/libc_pic.a(memmove-avx512-unaligned-erms.os)
 .bss           0x0000000000000118        0x0 /home/holy/vscode_remote_setup/glibc-build/libc_pic.a(memset-sse2-unaligned-erms.os)
 .bss           0x0000000000000118        0x0 /home/holy/vscode_remote_setup/glibc-build/libc_pic.a(memset-avx2-unaligned-erms.os)
 .bss           0x0000000000000118        0x0 /home/holy/vscode_remote_setup/glibc-build/libc_pic.a(memset-avx512-unaligned-erms.os)
 .bss           0x0000000000000118        0x0 /home/holy/vscode_remote_setup/glibc-build/libc_pic.a(cacheinfo.os)
 .bss           0x0000000000000118        0x0 /home/holy/vscode_remote_setup/glibc-build/libc_pic.a(closedir.os)
 .bss           0x0000000000000118        0x0 /home/holy/vscode_remote_setup/glibc-build/libc_pic.a(rewinddir.os)
 .bss           0x0000000000000118        0x0 /home/holy/vscode_remote_setup/glibc-build/libc_pic.a(readdir64.os)
 .bss           0x0000000000000118        0x0 /home/holy/vscode_remote_setup/glibc-build/libc_pic.a(fdopendir.os)
 .bss           0x0000000000000118        0x0 /home/holy/vscode_remote_setup/glibc-build/libc_pic.a(uname.os)
 .bss           0x0000000000000118        0x0 /home/holy/vscode_remote_setup/glibc-build/libc_pic.a(_exit.os)
 .bss           0x0000000000000118        0x0 /home/holy/vscode_remote_setup/glibc-build/libc_pic.a(getpid.os)
 .bss           0x0000000000000118        0x8 /home/holy/vscode_remote_setup/glibc-build/libc_pic.a(environ.os)
                0x0000000000000118                _environ
                0x0000000000000118                __environ
                0x0000000000000118                environ
 .bss           0x0000000000000120        0x0 /home/holy/vscode_remote_setup/glibc-build/libc_pic.a(xstat.os)
 .bss           0x0000000000000120        0x0 /home/holy/vscode_remote_setup/glibc-build/libc_pic.a(fxstat.os)
 .bss           0x0000000000000120        0x0 /home/holy/vscode_remote_setup/glibc-build/libc_pic.a(lxstat.os)
 .bss           0x0000000000000120        0x0 /home/holy/vscode_remote_setup/glibc-build/libc_pic.a(lseek64.os)
 .bss           0x0000000000000120        0x0 /home/holy/vscode_remote_setup/glibc-build/libc_pic.a(access.os)
 .bss           0x0000000000000120        0x0 /home/holy/vscode_remote_setup/glibc-build/libc_pic.a(close_nocancel.os)
 .bss           0x0000000000000120        0x0 /home/holy/vscode_remote_setup/glibc-build/libc_pic.a(fcntl_nocancel.os)
 .bss           0x0000000000000120        0x0 /home/holy/vscode_remote_setup/glibc-build/libc_pic.a(open64_nocancel.os)
 .bss           0x0000000000000120        0x0 /home/holy/vscode_remote_setup/glibc-build/libc_pic.a(openat64_nocancel.os)
 .bss           0x0000000000000120        0x0 /home/holy/vscode_remote_setup/glibc-build/libc_pic.a(read_nocancel.os)
 .bss           0x0000000000000120        0x0 /home/holy/vscode_remote_setup/glibc-build/libc_pic.a(write_nocancel.os)
 .bss           0x0000000000000120        0x0 /home/holy/vscode_remote_setup/glibc-build/libc_pic.a(mmap64.os)
 .bss           0x0000000000000120        0x0 /home/holy/vscode_remote_setup/glibc-build/libc_pic.a(munmap.os)
 .bss           0x0000000000000120        0x0 /home/holy/vscode_remote_setup/glibc-build/libc_pic.a(mprotect.os)
 .bss           0x0000000000000120       0xe0 /home/holy/vscode_remote_setup/glibc-build/libc_pic.a(profil.os)
 .bss           0x0000000000000200        0x0 /home/holy/vscode_remote_setup/glibc-build/libc_pic.a(prof-freq.os)
 .bss           0x0000000000000200        0x0 /home/holy/vscode_remote_setup/glibc-build/libc_pic.a(libc-lowlevellock.os)
 .bss           0x0000000000000200        0x0 /home/holy/vscode_remote_setup/glibc-build/libc_pic.a(libc_multiple_threads.os)
 .bss           0x0000000000000200        0x0 /home/holy/vscode_remote_setup/glibc-build/libc_pic.a(dl-addr-obj.os)
 .bss           0x0000000000000200        0x0 /home/holy/vscode_remote_setup/glibc-build/libc_pic.a(sigaction.os)
 .bss           0x0000000000000200        0x0 /home/holy/vscode_remote_setup/glibc-build/libc_pic.a(setitimer.os)
 .bss           0x0000000000000200        0x0 /home/holy/vscode_remote_setup/glibc-build/libc_pic.a(getdents64.os)
 *(COMMON)
 COMMON         0x0000000000000200        0x0 /home/holy/vscode_remote_setup/glibc-build/elf/dl-allobjs.os
 COMMON         0x0000000000000200        0x0 /home/holy/vscode_remote_setup/glibc-build/libc_pic.a(cacheinfo.os)
 COMMON         0x0000000000000200        0x0 /home/holy/vscode_remote_setup/glibc-build/libc_pic.a(libc_multiple_threads.os)

.lbss
 *(.dynlbss)
 *(.lbss)
 *(LARGE_COMMON)

.lrodata
 *(.lrodata)

.ldata
 *(.ldata)

.stab
 *(.stab)

.stabstr
 *(.stabstr)

.stab.excl
 *(.stab.excl)

.stab.exclstr
 *(.stab.exclstr)

.stab.index
 *(.stab.index)

.stab.indexstr
 *(.stab.indexstr)

.comment        0x0000000000000000     0x114c
 *(.comment)
 .comment       0x0000000000000000      0x7ce /home/holy/vscode_remote_setup/glibc-build/elf/dl-allobjs.os
 .comment       0x00000000000007ce       0x36 /home/holy/vscode_remote_setup/glibc-build/libc_pic.a(check_fds.os)
 .comment       0x0000000000000804       0x36 /home/holy/vscode_remote_setup/glibc-build/libc_pic.a(errno.os)
 .comment       0x000000000000083a       0x36 /home/holy/vscode_remote_setup/glibc-build/libc_pic.a(scratch_buffer_set_array_size.os)
 .comment       0x0000000000000870       0x36 /home/holy/vscode_remote_setup/glibc-build/libc_pic.a(strchr.os)
 .comment       0x00000000000008a6       0x36 /home/holy/vscode_remote_setup/glibc-build/libc_pic.a(strcmp.os)
 .comment       0x00000000000008dc       0x36 /home/holy/vscode_remote_setup/glibc-build/libc_pic.a(strcspn.os)
 .comment       0x0000000000000912       0x36 /home/holy/vscode_remote_setup/glibc-build/libc_pic.a(strdup.os)
 .comment       0x0000000000000948       0x36 /home/holy/vscode_remote_setup/glibc-build/libc_pic.a(strlen.os)
 .comment       0x000000000000097e       0x36 /home/holy/vscode_remote_setup/glibc-build/libc_pic.a(strnlen.os)
 .comment       0x00000000000009b4       0x36 /home/holy/vscode_remote_setup/glibc-build/libc_pic.a(strncmp.os)
 .comment       0x00000000000009ea       0x36 /home/holy/vscode_remote_setup/glibc-build/libc_pic.a(memchr.os)
 .comment       0x0000000000000a20       0x36 /home/holy/vscode_remote_setup/glibc-build/libc_pic.a(memcmp.os)
 .comment       0x0000000000000a56       0x36 /home/holy/vscode_remote_setup/glibc-build/libc_pic.a(memmove.os)
 .comment       0x0000000000000a8c       0x36 /home/holy/vscode_remote_setup/glibc-build/libc_pic.a(memset.os)
 .comment       0x0000000000000ac2       0x36 /home/holy/vscode_remote_setup/glibc-build/libc_pic.a(mempcpy.os)
 .comment       0x0000000000000af8       0x36 /home/holy/vscode_remote_setup/glibc-build/libc_pic.a(stpcpy.os)
 .comment       0x0000000000000b2e       0x36 /home/holy/vscode_remote_setup/glibc-build/libc_pic.a(memcpy.os)
 .comment       0x0000000000000b64       0x36 /home/holy/vscode_remote_setup/glibc-build/libc_pic.a(rawmemchr.os)
 .comment       0x0000000000000b9a       0x36 /home/holy/vscode_remote_setup/glibc-build/libc_pic.a(strcspn-c.os)
 .comment       0x0000000000000bd0       0x36 /home/holy/vscode_remote_setup/glibc-build/libc_pic.a(varshift.os)
 .comment       0x0000000000000c06       0x36 /home/holy/vscode_remote_setup/glibc-build/libc_pic.a(cacheinfo.os)
 .comment       0x0000000000000c3c       0x36 /home/holy/vscode_remote_setup/glibc-build/libc_pic.a(closedir.os)
 .comment       0x0000000000000c72       0x36 /home/holy/vscode_remote_setup/glibc-build/libc_pic.a(rewinddir.os)
 .comment       0x0000000000000ca8       0x36 /home/holy/vscode_remote_setup/glibc-build/libc_pic.a(readdir64.os)
 .comment       0x0000000000000cde       0x36 /home/holy/vscode_remote_setup/glibc-build/libc_pic.a(fdopendir.os)
 .comment       0x0000000000000d14       0x36 /home/holy/vscode_remote_setup/glibc-build/libc_pic.a(_exit.os)
 .comment       0x0000000000000d4a       0x36 /home/holy/vscode_remote_setup/glibc-build/libc_pic.a(environ.os)
 .comment       0x0000000000000d80       0x36 /home/holy/vscode_remote_setup/glibc-build/libc_pic.a(xstat.os)
 .comment       0x0000000000000db6       0x36 /home/holy/vscode_remote_setup/glibc-build/libc_pic.a(fxstat.os)
 .comment       0x0000000000000dec       0x36 /home/holy/vscode_remote_setup/glibc-build/libc_pic.a(lxstat.os)
 .comment       0x0000000000000e22       0x36 /home/holy/vscode_remote_setup/glibc-build/libc_pic.a(lseek64.os)
 .comment       0x0000000000000e58       0x36 /home/holy/vscode_remote_setup/glibc-build/libc_pic.a(access.os)
 .comment       0x0000000000000e8e       0x36 /home/holy/vscode_remote_setup/glibc-build/libc_pic.a(close_nocancel.os)
 .comment       0x0000000000000ec4       0x36 /home/holy/vscode_remote_setup/glibc-build/libc_pic.a(fcntl_nocancel.os)
 .comment       0x0000000000000efa       0x36 /home/holy/vscode_remote_setup/glibc-build/libc_pic.a(open64_nocancel.os)
 .comment       0x0000000000000f30       0x36 /home/holy/vscode_remote_setup/glibc-build/libc_pic.a(openat64_nocancel.os)
 .comment       0x0000000000000f66       0x36 /home/holy/vscode_remote_setup/glibc-build/libc_pic.a(read_nocancel.os)
 .comment       0x0000000000000f9c       0x36 /home/holy/vscode_remote_setup/glibc-build/libc_pic.a(write_nocancel.os)
 .comment       0x0000000000000fd2       0x36 /home/holy/vscode_remote_setup/glibc-build/libc_pic.a(mmap64.os)
 .comment       0x0000000000001008       0x36 /home/holy/vscode_remote_setup/glibc-build/libc_pic.a(profil.os)
 .comment       0x000000000000103e       0x36 /home/holy/vscode_remote_setup/glibc-build/libc_pic.a(prof-freq.os)
 .comment       0x0000000000001074       0x36 /home/holy/vscode_remote_setup/glibc-build/libc_pic.a(libc_multiple_threads.os)
 .comment       0x00000000000010aa       0x36 /home/holy/vscode_remote_setup/glibc-build/libc_pic.a(dl-addr-obj.os)
 .comment       0x00000000000010e0       0x36 /home/holy/vscode_remote_setup/glibc-build/libc_pic.a(sigaction.os)
 .comment       0x0000000000001116       0x36 /home/holy/vscode_remote_setup/glibc-build/libc_pic.a(getdents64.os)

.note.GNU-stack
                0x0000000000000000        0x0
 .note.GNU-stack
                0x0000000000000000        0x0 /home/holy/vscode_remote_setup/glibc-build/elf/dl-allobjs.os
 .note.GNU-stack
                0x0000000000000000        0x0 /home/holy/vscode_remote_setup/glibc-build/libc_pic.a(check_fds.os)
 .note.GNU-stack
                0x0000000000000000        0x0 /home/holy/vscode_remote_setup/glibc-build/libc_pic.a(errno.os)
 .note.GNU-stack
                0x0000000000000000        0x0 /home/holy/vscode_remote_setup/glibc-build/libc_pic.a(setjmp.os)
 .note.GNU-stack
                0x0000000000000000        0x0 /home/holy/vscode_remote_setup/glibc-build/libc_pic.a(__longjmp.os)
 .note.GNU-stack
                0x0000000000000000        0x0 /home/holy/vscode_remote_setup/glibc-build/libc_pic.a(scratch_buffer_set_array_size.os)
 .note.GNU-stack
                0x0000000000000000        0x0 /home/holy/vscode_remote_setup/glibc-build/libc_pic.a(strchr.os)
 .note.GNU-stack
                0x0000000000000000        0x0 /home/holy/vscode_remote_setup/glibc-build/libc_pic.a(strcmp.os)
 .note.GNU-stack
                0x0000000000000000        0x0 /home/holy/vscode_remote_setup/glibc-build/libc_pic.a(strcspn.os)
 .note.GNU-stack
                0x0000000000000000        0x0 /home/holy/vscode_remote_setup/glibc-build/libc_pic.a(strdup.os)
 .note.GNU-stack
                0x0000000000000000        0x0 /home/holy/vscode_remote_setup/glibc-build/libc_pic.a(strlen.os)
 .note.GNU-stack
                0x0000000000000000        0x0 /home/holy/vscode_remote_setup/glibc-build/libc_pic.a(strnlen.os)
 .note.GNU-stack
                0x0000000000000000        0x0 /home/holy/vscode_remote_setup/glibc-build/libc_pic.a(strncmp.os)
 .note.GNU-stack
                0x0000000000000000        0x0 /home/holy/vscode_remote_setup/glibc-build/libc_pic.a(memchr.os)
 .note.GNU-stack
                0x0000000000000000        0x0 /home/holy/vscode_remote_setup/glibc-build/libc_pic.a(memcmp.os)
 .note.GNU-stack
                0x0000000000000000        0x0 /home/holy/vscode_remote_setup/glibc-build/libc_pic.a(memmove.os)
 .note.GNU-stack
                0x0000000000000000        0x0 /home/holy/vscode_remote_setup/glibc-build/libc_pic.a(memset.os)
 .note.GNU-stack
                0x0000000000000000        0x0 /home/holy/vscode_remote_setup/glibc-build/libc_pic.a(mempcpy.os)
 .note.GNU-stack
                0x0000000000000000        0x0 /home/holy/vscode_remote_setup/glibc-build/libc_pic.a(stpcpy.os)
 .note.GNU-stack
                0x0000000000000000        0x0 /home/holy/vscode_remote_setup/glibc-build/libc_pic.a(memcpy.os)
 .note.GNU-stack
                0x0000000000000000        0x0 /home/holy/vscode_remote_setup/glibc-build/libc_pic.a(rawmemchr.os)
 .note.GNU-stack
                0x0000000000000000        0x0 /home/holy/vscode_remote_setup/glibc-build/libc_pic.a(strcmp-sse2.os)
 .note.GNU-stack
                0x0000000000000000        0x0 /home/holy/vscode_remote_setup/glibc-build/libc_pic.a(strcmp-sse2-unaligned.os)
 .note.GNU-stack
                0x0000000000000000        0x0 /home/holy/vscode_remote_setup/glibc-build/libc_pic.a(strcmp-ssse3.os)
 .note.GNU-stack
                0x0000000000000000        0x0 /home/holy/vscode_remote_setup/glibc-build/libc_pic.a(strcmp-avx2.os)
 .note.GNU-stack
                0x0000000000000000        0x0 /home/holy/vscode_remote_setup/glibc-build/libc_pic.a(strncmp-sse2.os)
 .note.GNU-stack
                0x0000000000000000        0x0 /home/holy/vscode_remote_setup/glibc-build/libc_pic.a(strncmp-ssse3.os)
 .note.GNU-stack
                0x0000000000000000        0x0 /home/holy/vscode_remote_setup/glibc-build/libc_pic.a(strncmp-sse4_2.os)
 .note.GNU-stack
                0x0000000000000000        0x0 /home/holy/vscode_remote_setup/glibc-build/libc_pic.a(strncmp-avx2.os)
 .note.GNU-stack
                0x0000000000000000        0x0 /home/holy/vscode_remote_setup/glibc-build/libc_pic.a(memchr-sse2.os)
 .note.GNU-stack
                0x0000000000000000        0x0 /home/holy/vscode_remote_setup/glibc-build/libc_pic.a(rawmemchr-sse2.os)
 .note.GNU-stack
                0x0000000000000000        0x0 /home/holy/vscode_remote_setup/glibc-build/libc_pic.a(memchr-avx2.os)
 .note.GNU-stack
                0x0000000000000000        0x0 /home/holy/vscode_remote_setup/glibc-build/libc_pic.a(rawmemchr-avx2.os)
 .note.GNU-stack
                0x0000000000000000        0x0 /home/holy/vscode_remote_setup/glibc-build/libc_pic.a(memcmp-sse2.os)
 .note.GNU-stack
                0x0000000000000000        0x0 /home/holy/vscode_remote_setup/glibc-build/libc_pic.a(memcmp-avx2-movbe.os)
 .note.GNU-stack
                0x0000000000000000        0x0 /home/holy/vscode_remote_setup/glibc-build/libc_pic.a(memcmp-sse4.os)
 .note.GNU-stack
                0x0000000000000000        0x0 /home/holy/vscode_remote_setup/glibc-build/libc_pic.a(memcpy-ssse3.os)
 .note.GNU-stack
                0x0000000000000000        0x0 /home/holy/vscode_remote_setup/glibc-build/libc_pic.a(memmove-ssse3.os)
 .note.GNU-stack
                0x0000000000000000        0x0 /home/holy/vscode_remote_setup/glibc-build/libc_pic.a(memcpy-ssse3-back.os)
 .note.GNU-stack
                0x0000000000000000        0x0 /home/holy/vscode_remote_setup/glibc-build/libc_pic.a(memmove-ssse3-back.os)
 .note.GNU-stack
                0x0000000000000000        0x0 /home/holy/vscode_remote_setup/glibc-build/libc_pic.a(memmove-avx512-no-vzeroupper.os)
 .note.GNU-stack
                0x0000000000000000        0x0 /home/holy/vscode_remote_setup/glibc-build/libc_pic.a(strchr-sse2.os)
 .note.GNU-stack
                0x0000000000000000        0x0 /home/holy/vscode_remote_setup/glibc-build/libc_pic.a(strchr-avx2.os)
 .note.GNU-stack
                0x0000000000000000        0x0 /home/holy/vscode_remote_setup/glibc-build/libc_pic.a(strlen-sse2.os)
 .note.GNU-stack
                0x0000000000000000        0x0 /home/holy/vscode_remote_setup/glibc-build/libc_pic.a(strnlen-sse2.os)
 .note.GNU-stack
                0x0000000000000000        0x0 /home/holy/vscode_remote_setup/glibc-build/libc_pic.a(strlen-avx2.os)
 .note.GNU-stack
                0x0000000000000000        0x0 /home/holy/vscode_remote_setup/glibc-build/libc_pic.a(strnlen-avx2.os)
 .note.GNU-stack
                0x0000000000000000        0x0 /home/holy/vscode_remote_setup/glibc-build/libc_pic.a(stpcpy-sse2.os)
 .note.GNU-stack
                0x0000000000000000        0x0 /home/holy/vscode_remote_setup/glibc-build/libc_pic.a(stpcpy-ssse3.os)
 .note.GNU-stack
                0x0000000000000000        0x0 /home/holy/vscode_remote_setup/glibc-build/libc_pic.a(stpcpy-sse2-unaligned.os)
 .note.GNU-stack
                0x0000000000000000        0x0 /home/holy/vscode_remote_setup/glibc-build/libc_pic.a(strchr-sse2-no-bsf.os)
 .note.GNU-stack
                0x0000000000000000        0x0 /home/holy/vscode_remote_setup/glibc-build/libc_pic.a(memcmp-ssse3.os)
 .note.GNU-stack
                0x0000000000000000        0x0 /home/holy/vscode_remote_setup/glibc-build/libc_pic.a(strcspn-sse2.os)
 .note.GNU-stack
                0x0000000000000000        0x0 /home/holy/vscode_remote_setup/glibc-build/libc_pic.a(strcspn-c.os)
 .note.GNU-stack
                0x0000000000000000        0x0 /home/holy/vscode_remote_setup/glibc-build/libc_pic.a(varshift.os)
 .note.GNU-stack
                0x0000000000000000        0x0 /home/holy/vscode_remote_setup/glibc-build/libc_pic.a(memset-avx512-no-vzeroupper.os)
 .note.GNU-stack
                0x0000000000000000        0x0 /home/holy/vscode_remote_setup/glibc-build/libc_pic.a(memmove-sse2-unaligned-erms.os)
 .note.GNU-stack
                0x0000000000000000        0x0 /home/holy/vscode_remote_setup/glibc-build/libc_pic.a(memmove-avx-unaligned-erms.os)
 .note.GNU-stack
                0x0000000000000000        0x0 /home/holy/vscode_remote_setup/glibc-build/libc_pic.a(memmove-avx512-unaligned-erms.os)
 .note.GNU-stack
                0x0000000000000000        0x0 /home/holy/vscode_remote_setup/glibc-build/libc_pic.a(memset-sse2-unaligned-erms.os)
 .note.GNU-stack
                0x0000000000000000        0x0 /home/holy/vscode_remote_setup/glibc-build/libc_pic.a(memset-avx2-unaligned-erms.os)
 .note.GNU-stack
                0x0000000000000000        0x0 /home/holy/vscode_remote_setup/glibc-build/libc_pic.a(memset-avx512-unaligned-erms.os)
 .note.GNU-stack
                0x0000000000000000        0x0 /home/holy/vscode_remote_setup/glibc-build/libc_pic.a(cacheinfo.os)
 .note.GNU-stack
                0x0000000000000000        0x0 /home/holy/vscode_remote_setup/glibc-build/libc_pic.a(closedir.os)
 .note.GNU-stack
                0x0000000000000000        0x0 /home/holy/vscode_remote_setup/glibc-build/libc_pic.a(rewinddir.os)
 .note.GNU-stack
                0x0000000000000000        0x0 /home/holy/vscode_remote_setup/glibc-build/libc_pic.a(readdir64.os)
 .note.GNU-stack
                0x0000000000000000        0x0 /home/holy/vscode_remote_setup/glibc-build/libc_pic.a(fdopendir.os)
 .note.GNU-stack
                0x0000000000000000        0x0 /home/holy/vscode_remote_setup/glibc-build/libc_pic.a(uname.os)
 .note.GNU-stack
                0x0000000000000000        0x0 /home/holy/vscode_remote_setup/glibc-build/libc_pic.a(_exit.os)
 .note.GNU-stack
                0x0000000000000000        0x0 /home/holy/vscode_remote_setup/glibc-build/libc_pic.a(getpid.os)
 .note.GNU-stack
                0x0000000000000000        0x0 /home/holy/vscode_remote_setup/glibc-build/libc_pic.a(environ.os)
 .note.GNU-stack
                0x0000000000000000        0x0 /home/holy/vscode_remote_setup/glibc-build/libc_pic.a(xstat.os)
 .note.GNU-stack
                0x0000000000000000        0x0 /home/holy/vscode_remote_setup/glibc-build/libc_pic.a(fxstat.os)
 .note.GNU-stack
                0x0000000000000000        0x0 /home/holy/vscode_remote_setup/glibc-build/libc_pic.a(lxstat.os)
 .note.GNU-stack
                0x0000000000000000        0x0 /home/holy/vscode_remote_setup/glibc-build/libc_pic.a(lseek64.os)
 .note.GNU-stack
                0x0000000000000000        0x0 /home/holy/vscode_remote_setup/glibc-build/libc_pic.a(access.os)
 .note.GNU-stack
                0x0000000000000000        0x0 /home/holy/vscode_remote_setup/glibc-build/libc_pic.a(close_nocancel.os)
 .note.GNU-stack
                0x0000000000000000        0x0 /home/holy/vscode_remote_setup/glibc-build/libc_pic.a(fcntl_nocancel.os)
 .note.GNU-stack
                0x0000000000000000        0x0 /home/holy/vscode_remote_setup/glibc-build/libc_pic.a(open64_nocancel.os)
 .note.GNU-stack
                0x0000000000000000        0x0 /home/holy/vscode_remote_setup/glibc-build/libc_pic.a(openat64_nocancel.os)
 .note.GNU-stack
                0x0000000000000000        0x0 /home/holy/vscode_remote_setup/glibc-build/libc_pic.a(read_nocancel.os)
 .note.GNU-stack
                0x0000000000000000        0x0 /home/holy/vscode_remote_setup/glibc-build/libc_pic.a(write_nocancel.os)
 .note.GNU-stack
                0x0000000000000000        0x0 /home/holy/vscode_remote_setup/glibc-build/libc_pic.a(mmap64.os)
 .note.GNU-stack
                0x0000000000000000        0x0 /home/holy/vscode_remote_setup/glibc-build/libc_pic.a(munmap.os)
 .note.GNU-stack
                0x0000000000000000        0x0 /home/holy/vscode_remote_setup/glibc-build/libc_pic.a(mprotect.os)
 .note.GNU-stack
                0x0000000000000000        0x0 /home/holy/vscode_remote_setup/glibc-build/libc_pic.a(profil.os)
 .note.GNU-stack
                0x0000000000000000        0x0 /home/holy/vscode_remote_setup/glibc-build/libc_pic.a(prof-freq.os)
 .note.GNU-stack
                0x0000000000000000        0x0 /home/holy/vscode_remote_setup/glibc-build/libc_pic.a(libc-lowlevellock.os)
 .note.GNU-stack
                0x0000000000000000        0x0 /home/holy/vscode_remote_setup/glibc-build/libc_pic.a(libc_multiple_threads.os)
 .note.GNU-stack
                0x0000000000000000        0x0 /home/holy/vscode_remote_setup/glibc-build/libc_pic.a(dl-addr-obj.os)
 .note.GNU-stack
                0x0000000000000000        0x0 /home/holy/vscode_remote_setup/glibc-build/libc_pic.a(sigaction.os)
 .note.GNU-stack
                0x0000000000000000        0x0 /home/holy/vscode_remote_setup/glibc-build/libc_pic.a(setitimer.os)
 .note.GNU-stack
                0x0000000000000000        0x0 /home/holy/vscode_remote_setup/glibc-build/libc_pic.a(getdents64.os)

.debug
 *(.debug)

.line
 *(.line)

.debug_srcinfo
 *(.debug_srcinfo)

.debug_sfnames
 *(.debug_sfnames)

.debug_aranges  0x0000000000000000     0x18b0
 *(.debug_aranges)
 .debug_aranges
                0x0000000000000000      0x7a0 /home/holy/vscode_remote_setup/glibc-build/elf/dl-allobjs.os
 .debug_aranges
                0x00000000000007a0       0x30 /home/holy/vscode_remote_setup/glibc-build/libc_pic.a(check_fds.os)
 .debug_aranges
                0x00000000000007d0       0x20 /home/holy/vscode_remote_setup/glibc-build/libc_pic.a(errno.os)
 .debug_aranges
                0x00000000000007f0       0x30 /home/holy/vscode_remote_setup/glibc-build/libc_pic.a(setjmp.os)
 .debug_aranges
                0x0000000000000820       0x30 /home/holy/vscode_remote_setup/glibc-build/libc_pic.a(__longjmp.os)
 .debug_aranges
                0x0000000000000850       0x30 /home/holy/vscode_remote_setup/glibc-build/libc_pic.a(scratch_buffer_set_array_size.os)
 .debug_aranges
                0x0000000000000880       0x30 /home/holy/vscode_remote_setup/glibc-build/libc_pic.a(strchr.os)
 .debug_aranges
                0x00000000000008b0       0x30 /home/holy/vscode_remote_setup/glibc-build/libc_pic.a(strcmp.os)
 .debug_aranges
                0x00000000000008e0       0x30 /home/holy/vscode_remote_setup/glibc-build/libc_pic.a(strcspn.os)
 .debug_aranges
                0x0000000000000910       0x30 /home/holy/vscode_remote_setup/glibc-build/libc_pic.a(strdup.os)
 .debug_aranges
                0x0000000000000940       0x30 /home/holy/vscode_remote_setup/glibc-build/libc_pic.a(strlen.os)
 .debug_aranges
                0x0000000000000970       0x30 /home/holy/vscode_remote_setup/glibc-build/libc_pic.a(strnlen.os)
 .debug_aranges
                0x00000000000009a0       0x30 /home/holy/vscode_remote_setup/glibc-build/libc_pic.a(strncmp.os)
 .debug_aranges
                0x00000000000009d0       0x30 /home/holy/vscode_remote_setup/glibc-build/libc_pic.a(memchr.os)
 .debug_aranges
                0x0000000000000a00       0x30 /home/holy/vscode_remote_setup/glibc-build/libc_pic.a(memcmp.os)
 .debug_aranges
                0x0000000000000a30       0x30 /home/holy/vscode_remote_setup/glibc-build/libc_pic.a(memmove.os)
 .debug_aranges
                0x0000000000000a60       0x30 /home/holy/vscode_remote_setup/glibc-build/libc_pic.a(memset.os)
 .debug_aranges
                0x0000000000000a90       0x30 /home/holy/vscode_remote_setup/glibc-build/libc_pic.a(mempcpy.os)
 .debug_aranges
                0x0000000000000ac0       0x30 /home/holy/vscode_remote_setup/glibc-build/libc_pic.a(stpcpy.os)
 .debug_aranges
                0x0000000000000af0       0x30 /home/holy/vscode_remote_setup/glibc-build/libc_pic.a(memcpy.os)
 .debug_aranges
                0x0000000000000b20       0x30 /home/holy/vscode_remote_setup/glibc-build/libc_pic.a(rawmemchr.os)
 .debug_aranges
                0x0000000000000b50       0x30 /home/holy/vscode_remote_setup/glibc-build/libc_pic.a(strcmp-sse2.os)
 .debug_aranges
                0x0000000000000b80       0x30 /home/holy/vscode_remote_setup/glibc-build/libc_pic.a(strcmp-sse2-unaligned.os)
 .debug_aranges
                0x0000000000000bb0       0x30 /home/holy/vscode_remote_setup/glibc-build/libc_pic.a(strcmp-ssse3.os)
 .debug_aranges
                0x0000000000000be0       0x30 /home/holy/vscode_remote_setup/glibc-build/libc_pic.a(strcmp-avx2.os)
 .debug_aranges
                0x0000000000000c10       0x30 /home/holy/vscode_remote_setup/glibc-build/libc_pic.a(strncmp-sse2.os)
 .debug_aranges
                0x0000000000000c40       0x30 /home/holy/vscode_remote_setup/glibc-build/libc_pic.a(strncmp-ssse3.os)
 .debug_aranges
                0x0000000000000c70       0x30 /home/holy/vscode_remote_setup/glibc-build/libc_pic.a(strncmp-sse4_2.os)
 .debug_aranges
                0x0000000000000ca0       0x30 /home/holy/vscode_remote_setup/glibc-build/libc_pic.a(strncmp-avx2.os)
 .debug_aranges
                0x0000000000000cd0       0x30 /home/holy/vscode_remote_setup/glibc-build/libc_pic.a(memchr-sse2.os)
 .debug_aranges
                0x0000000000000d00       0x30 /home/holy/vscode_remote_setup/glibc-build/libc_pic.a(rawmemchr-sse2.os)
 .debug_aranges
                0x0000000000000d30       0x30 /home/holy/vscode_remote_setup/glibc-build/libc_pic.a(memchr-avx2.os)
 .debug_aranges
                0x0000000000000d60       0x30 /home/holy/vscode_remote_setup/glibc-build/libc_pic.a(rawmemchr-avx2.os)
 .debug_aranges
                0x0000000000000d90       0x30 /home/holy/vscode_remote_setup/glibc-build/libc_pic.a(memcmp-sse2.os)
 .debug_aranges
                0x0000000000000dc0       0x30 /home/holy/vscode_remote_setup/glibc-build/libc_pic.a(memcmp-avx2-movbe.os)
 .debug_aranges
                0x0000000000000df0       0x30 /home/holy/vscode_remote_setup/glibc-build/libc_pic.a(memcmp-sse4.os)
 .debug_aranges
                0x0000000000000e20       0x30 /home/holy/vscode_remote_setup/glibc-build/libc_pic.a(memcpy-ssse3.os)
 .debug_aranges
                0x0000000000000e50       0x30 /home/holy/vscode_remote_setup/glibc-build/libc_pic.a(memmove-ssse3.os)
 .debug_aranges
                0x0000000000000e80       0x30 /home/holy/vscode_remote_setup/glibc-build/libc_pic.a(memcpy-ssse3-back.os)
 .debug_aranges
                0x0000000000000eb0       0x30 /home/holy/vscode_remote_setup/glibc-build/libc_pic.a(memmove-ssse3-back.os)
 .debug_aranges
                0x0000000000000ee0       0x30 /home/holy/vscode_remote_setup/glibc-build/libc_pic.a(memmove-avx512-no-vzeroupper.os)
 .debug_aranges
                0x0000000000000f10       0x30 /home/holy/vscode_remote_setup/glibc-build/libc_pic.a(strchr-sse2.os)
 .debug_aranges
                0x0000000000000f40       0x30 /home/holy/vscode_remote_setup/glibc-build/libc_pic.a(strchr-avx2.os)
 .debug_aranges
                0x0000000000000f70       0x30 /home/holy/vscode_remote_setup/glibc-build/libc_pic.a(strlen-sse2.os)
 .debug_aranges
                0x0000000000000fa0       0x30 /home/holy/vscode_remote_setup/glibc-build/libc_pic.a(strnlen-sse2.os)
 .debug_aranges
                0x0000000000000fd0       0x30 /home/holy/vscode_remote_setup/glibc-build/libc_pic.a(strlen-avx2.os)
 .debug_aranges
                0x0000000000001000       0x30 /home/holy/vscode_remote_setup/glibc-build/libc_pic.a(strnlen-avx2.os)
 .debug_aranges
                0x0000000000001030       0x30 /home/holy/vscode_remote_setup/glibc-build/libc_pic.a(stpcpy-sse2.os)
 .debug_aranges
                0x0000000000001060       0x30 /home/holy/vscode_remote_setup/glibc-build/libc_pic.a(stpcpy-ssse3.os)
 .debug_aranges
                0x0000000000001090       0x30 /home/holy/vscode_remote_setup/glibc-build/libc_pic.a(stpcpy-sse2-unaligned.os)
 .debug_aranges
                0x00000000000010c0       0x30 /home/holy/vscode_remote_setup/glibc-build/libc_pic.a(strchr-sse2-no-bsf.os)
 .debug_aranges
                0x00000000000010f0       0x30 /home/holy/vscode_remote_setup/glibc-build/libc_pic.a(memcmp-ssse3.os)
 .debug_aranges
                0x0000000000001120       0x30 /home/holy/vscode_remote_setup/glibc-build/libc_pic.a(strcspn-sse2.os)
 .debug_aranges
                0x0000000000001150       0x30 /home/holy/vscode_remote_setup/glibc-build/libc_pic.a(strcspn-c.os)
 .debug_aranges
                0x0000000000001180       0x20 /home/holy/vscode_remote_setup/glibc-build/libc_pic.a(varshift.os)
 .debug_aranges
                0x00000000000011a0       0x30 /home/holy/vscode_remote_setup/glibc-build/libc_pic.a(memset-avx512-no-vzeroupper.os)
 .debug_aranges
                0x00000000000011d0       0x30 /home/holy/vscode_remote_setup/glibc-build/libc_pic.a(memmove-sse2-unaligned-erms.os)
 .debug_aranges
                0x0000000000001200       0x30 /home/holy/vscode_remote_setup/glibc-build/libc_pic.a(memmove-avx-unaligned-erms.os)
 .debug_aranges
                0x0000000000001230       0x30 /home/holy/vscode_remote_setup/glibc-build/libc_pic.a(memmove-avx512-unaligned-erms.os)
 .debug_aranges
                0x0000000000001260       0x30 /home/holy/vscode_remote_setup/glibc-build/libc_pic.a(memset-sse2-unaligned-erms.os)
 .debug_aranges
                0x0000000000001290       0x30 /home/holy/vscode_remote_setup/glibc-build/libc_pic.a(memset-avx2-unaligned-erms.os)
 .debug_aranges
                0x00000000000012c0       0x30 /home/holy/vscode_remote_setup/glibc-build/libc_pic.a(memset-avx512-unaligned-erms.os)
 .debug_aranges
                0x00000000000012f0       0x40 /home/holy/vscode_remote_setup/glibc-build/libc_pic.a(cacheinfo.os)
 .debug_aranges
                0x0000000000001330       0x30 /home/holy/vscode_remote_setup/glibc-build/libc_pic.a(closedir.os)
 .debug_aranges
                0x0000000000001360       0x30 /home/holy/vscode_remote_setup/glibc-build/libc_pic.a(rewinddir.os)
 .debug_aranges
                0x0000000000001390       0x30 /home/holy/vscode_remote_setup/glibc-build/libc_pic.a(readdir64.os)
 .debug_aranges
                0x00000000000013c0       0x30 /home/holy/vscode_remote_setup/glibc-build/libc_pic.a(fdopendir.os)
 .debug_aranges
                0x00000000000013f0       0x30 /home/holy/vscode_remote_setup/glibc-build/libc_pic.a(uname.os)
 .debug_aranges
                0x0000000000001420       0x30 /home/holy/vscode_remote_setup/glibc-build/libc_pic.a(_exit.os)
 .debug_aranges
                0x0000000000001450       0x30 /home/holy/vscode_remote_setup/glibc-build/libc_pic.a(getpid.os)
 .debug_aranges
                0x0000000000001480       0x20 /home/holy/vscode_remote_setup/glibc-build/libc_pic.a(environ.os)
 .debug_aranges
                0x00000000000014a0       0x30 /home/holy/vscode_remote_setup/glibc-build/libc_pic.a(xstat.os)
 .debug_aranges
                0x00000000000014d0       0x30 /home/holy/vscode_remote_setup/glibc-build/libc_pic.a(fxstat.os)
 .debug_aranges
                0x0000000000001500       0x30 /home/holy/vscode_remote_setup/glibc-build/libc_pic.a(lxstat.os)
 .debug_aranges
                0x0000000000001530       0x30 /home/holy/vscode_remote_setup/glibc-build/libc_pic.a(lseek64.os)
 .debug_aranges
                0x0000000000001560       0x30 /home/holy/vscode_remote_setup/glibc-build/libc_pic.a(access.os)
 .debug_aranges
                0x0000000000001590       0x30 /home/holy/vscode_remote_setup/glibc-build/libc_pic.a(close_nocancel.os)
 .debug_aranges
                0x00000000000015c0       0x30 /home/holy/vscode_remote_setup/glibc-build/libc_pic.a(fcntl_nocancel.os)
 .debug_aranges
                0x00000000000015f0       0x30 /home/holy/vscode_remote_setup/glibc-build/libc_pic.a(open64_nocancel.os)
 .debug_aranges
                0x0000000000001620       0x30 /home/holy/vscode_remote_setup/glibc-build/libc_pic.a(openat64_nocancel.os)
 .debug_aranges
                0x0000000000001650       0x30 /home/holy/vscode_remote_setup/glibc-build/libc_pic.a(read_nocancel.os)
 .debug_aranges
                0x0000000000001680       0x30 /home/holy/vscode_remote_setup/glibc-build/libc_pic.a(write_nocancel.os)
 .debug_aranges
                0x00000000000016b0       0x30 /home/holy/vscode_remote_setup/glibc-build/libc_pic.a(mmap64.os)
 .debug_aranges
                0x00000000000016e0       0x30 /home/holy/vscode_remote_setup/glibc-build/libc_pic.a(munmap.os)
 .debug_aranges
                0x0000000000001710       0x30 /home/holy/vscode_remote_setup/glibc-build/libc_pic.a(mprotect.os)
 .debug_aranges
                0x0000000000001740       0x30 /home/holy/vscode_remote_setup/glibc-build/libc_pic.a(profil.os)
 .debug_aranges
                0x0000000000001770       0x30 /home/holy/vscode_remote_setup/glibc-build/libc_pic.a(prof-freq.os)
 .debug_aranges
                0x00000000000017a0       0x30 /home/holy/vscode_remote_setup/glibc-build/libc_pic.a(libc-lowlevellock.os)
 .debug_aranges
                0x00000000000017d0       0x20 /home/holy/vscode_remote_setup/glibc-build/libc_pic.a(libc_multiple_threads.os)
 .debug_aranges
                0x00000000000017f0       0x30 /home/holy/vscode_remote_setup/glibc-build/libc_pic.a(dl-addr-obj.os)
 .debug_aranges
                0x0000000000001820       0x30 /home/holy/vscode_remote_setup/glibc-build/libc_pic.a(sigaction.os)
 .debug_aranges
                0x0000000000001850       0x30 /home/holy/vscode_remote_setup/glibc-build/libc_pic.a(setitimer.os)
 .debug_aranges
                0x0000000000001880       0x30 /home/holy/vscode_remote_setup/glibc-build/libc_pic.a(getdents64.os)

.debug_pubnames
 *(.debug_pubnames)

.debug_info     0x0000000000000000    0x894b2
 *(.debug_info)
 .debug_info    0x0000000000000000    0x5d63d /home/holy/vscode_remote_setup/glibc-build/elf/dl-allobjs.os
 .debug_info    0x000000000005d63d      0x8c7 /home/holy/vscode_remote_setup/glibc-build/libc_pic.a(check_fds.os)
 .debug_info    0x000000000005df04      0x53b /home/holy/vscode_remote_setup/glibc-build/libc_pic.a(errno.os)
 .debug_info    0x000000000005e43f       0x7c /home/holy/vscode_remote_setup/glibc-build/libc_pic.a(setjmp.os)
 .debug_info    0x000000000005e4bb       0x7f /home/holy/vscode_remote_setup/glibc-build/libc_pic.a(__longjmp.os)
 .debug_info    0x000000000005e53a      0x7c2 /home/holy/vscode_remote_setup/glibc-build/libc_pic.a(scratch_buffer_set_array_size.os)
 .debug_info    0x000000000005ecfc     0x1b0f /home/holy/vscode_remote_setup/glibc-build/libc_pic.a(strchr.os)
 .debug_info    0x000000000006080b     0x1b34 /home/holy/vscode_remote_setup/glibc-build/libc_pic.a(strcmp.os)
 .debug_info    0x000000000006233f     0x1b34 /home/holy/vscode_remote_setup/glibc-build/libc_pic.a(strcspn.os)
 .debug_info    0x0000000000063e73      0x1ce /home/holy/vscode_remote_setup/glibc-build/libc_pic.a(strdup.os)
 .debug_info    0x0000000000064041     0x1b0a /home/holy/vscode_remote_setup/glibc-build/libc_pic.a(strlen.os)
 .debug_info    0x0000000000065b4b     0x1b0f /home/holy/vscode_remote_setup/glibc-build/libc_pic.a(strnlen.os)
 .debug_info    0x000000000006765a     0x1b39 /home/holy/vscode_remote_setup/glibc-build/libc_pic.a(strncmp.os)
 .debug_info    0x0000000000069193     0x1b14 /home/holy/vscode_remote_setup/glibc-build/libc_pic.a(memchr.os)
 .debug_info    0x000000000006aca7     0x1b39 /home/holy/vscode_remote_setup/glibc-build/libc_pic.a(memcmp.os)
 .debug_info    0x000000000006c7e0     0x1b39 /home/holy/vscode_remote_setup/glibc-build/libc_pic.a(memmove.os)
 .debug_info    0x000000000006e319     0x1b39 /home/holy/vscode_remote_setup/glibc-build/libc_pic.a(memset.os)
 .debug_info    0x000000000006fe52     0x1b43 /home/holy/vscode_remote_setup/glibc-build/libc_pic.a(mempcpy.os)
 .debug_info    0x0000000000071995     0x1b3e /home/holy/vscode_remote_setup/glibc-build/libc_pic.a(stpcpy.os)
 .debug_info    0x00000000000734d3     0x1b43 /home/holy/vscode_remote_setup/glibc-build/libc_pic.a(memcpy.os)
 .debug_info    0x0000000000075016     0x1b0f /home/holy/vscode_remote_setup/glibc-build/libc_pic.a(rawmemchr.os)
 .debug_info    0x0000000000076b25       0x7c /home/holy/vscode_remote_setup/glibc-build/libc_pic.a(strcmp-sse2.os)
 .debug_info    0x0000000000076ba1       0x95 /home/holy/vscode_remote_setup/glibc-build/libc_pic.a(strcmp-sse2-unaligned.os)
 .debug_info    0x0000000000076c36       0x89 /home/holy/vscode_remote_setup/glibc-build/libc_pic.a(strcmp-ssse3.os)
 .debug_info    0x0000000000076cbf       0x8b /home/holy/vscode_remote_setup/glibc-build/libc_pic.a(strcmp-avx2.os)
 .debug_info    0x0000000000076d4a       0x7c /home/holy/vscode_remote_setup/glibc-build/libc_pic.a(strncmp-sse2.os)
 .debug_info    0x0000000000076dc6       0x7c /home/holy/vscode_remote_setup/glibc-build/libc_pic.a(strncmp-ssse3.os)
 .debug_info    0x0000000000076e42       0x8c /home/holy/vscode_remote_setup/glibc-build/libc_pic.a(strncmp-sse4_2.os)
 .debug_info    0x0000000000076ece       0x8b /home/holy/vscode_remote_setup/glibc-build/libc_pic.a(strncmp-avx2.os)
 .debug_info    0x0000000000076f59       0x89 /home/holy/vscode_remote_setup/glibc-build/libc_pic.a(memchr-sse2.os)
 .debug_info    0x0000000000076fe2       0x8c /home/holy/vscode_remote_setup/glibc-build/libc_pic.a(rawmemchr-sse2.os)
 .debug_info    0x000000000007706e       0x8b /home/holy/vscode_remote_setup/glibc-build/libc_pic.a(memchr-avx2.os)
 .debug_info    0x00000000000770f9       0x8b /home/holy/vscode_remote_setup/glibc-build/libc_pic.a(rawmemchr-avx2.os)
 .debug_info    0x0000000000077184       0x7c /home/holy/vscode_remote_setup/glibc-build/libc_pic.a(memcmp-sse2.os)
 .debug_info    0x0000000000077200       0x91 /home/holy/vscode_remote_setup/glibc-build/libc_pic.a(memcmp-avx2-movbe.os)
 .debug_info    0x0000000000077291       0x8b /home/holy/vscode_remote_setup/glibc-build/libc_pic.a(memcmp-sse4.os)
 .debug_info    0x000000000007731c       0x8c /home/holy/vscode_remote_setup/glibc-build/libc_pic.a(memcpy-ssse3.os)
 .debug_info    0x00000000000773a8       0x8c /home/holy/vscode_remote_setup/glibc-build/libc_pic.a(memmove-ssse3.os)
 .debug_info    0x0000000000077434       0x91 /home/holy/vscode_remote_setup/glibc-build/libc_pic.a(memcpy-ssse3-back.os)
 .debug_info    0x00000000000774c5       0x91 /home/holy/vscode_remote_setup/glibc-build/libc_pic.a(memmove-ssse3-back.os)
 .debug_info    0x0000000000077556       0x9c /home/holy/vscode_remote_setup/glibc-build/libc_pic.a(memmove-avx512-no-vzeroupper.os)
 .debug_info    0x00000000000775f2       0x89 /home/holy/vscode_remote_setup/glibc-build/libc_pic.a(strchr-sse2.os)
 .debug_info    0x000000000007767b       0x8b /home/holy/vscode_remote_setup/glibc-build/libc_pic.a(strchr-avx2.os)
 .debug_info    0x0000000000077706       0x89 /home/holy/vscode_remote_setup/glibc-build/libc_pic.a(strlen-sse2.os)
 .debug_info    0x000000000007778f       0x89 /home/holy/vscode_remote_setup/glibc-build/libc_pic.a(strnlen-sse2.os)
 .debug_info    0x0000000000077818       0x8b /home/holy/vscode_remote_setup/glibc-build/libc_pic.a(strlen-avx2.os)
 .debug_info    0x00000000000778a3       0x8b /home/holy/vscode_remote_setup/glibc-build/libc_pic.a(strnlen-avx2.os)
 .debug_info    0x000000000007792e       0x7c /home/holy/vscode_remote_setup/glibc-build/libc_pic.a(stpcpy-sse2.os)
 .debug_info    0x00000000000779aa       0x8c /home/holy/vscode_remote_setup/glibc-build/libc_pic.a(stpcpy-ssse3.os)
 .debug_info    0x0000000000077a36       0x95 /home/holy/vscode_remote_setup/glibc-build/libc_pic.a(stpcpy-sse2-unaligned.os)
 .debug_info    0x0000000000077acb       0x92 /home/holy/vscode_remote_setup/glibc-build/libc_pic.a(strchr-sse2-no-bsf.os)
 .debug_info    0x0000000000077b5d       0x8c /home/holy/vscode_remote_setup/glibc-build/libc_pic.a(memcmp-ssse3.os)
 .debug_info    0x0000000000077be9       0x7d /home/holy/vscode_remote_setup/glibc-build/libc_pic.a(strcspn-sse2.os)
 .debug_info    0x0000000000077c66      0x707 /home/holy/vscode_remote_setup/glibc-build/libc_pic.a(strcspn-c.os)
 .debug_info    0x000000000007836d      0x127 /home/holy/vscode_remote_setup/glibc-build/libc_pic.a(varshift.os)
 .debug_info    0x0000000000078494       0x9b /home/holy/vscode_remote_setup/glibc-build/libc_pic.a(memset-avx512-no-vzeroupper.os)
 .debug_info    0x000000000007852f       0x9a /home/holy/vscode_remote_setup/glibc-build/libc_pic.a(memmove-sse2-unaligned-erms.os)
 .debug_info    0x00000000000785c9       0x9a /home/holy/vscode_remote_setup/glibc-build/libc_pic.a(memmove-avx-unaligned-erms.os)
 .debug_info    0x0000000000078663       0x9a /home/holy/vscode_remote_setup/glibc-build/libc_pic.a(memmove-avx512-unaligned-erms.os)
 .debug_info    0x00000000000786fd       0x99 /home/holy/vscode_remote_setup/glibc-build/libc_pic.a(memset-sse2-unaligned-erms.os)
 .debug_info    0x0000000000078796       0x99 /home/holy/vscode_remote_setup/glibc-build/libc_pic.a(memset-avx2-unaligned-erms.os)
 .debug_info    0x000000000007882f       0x99 /home/holy/vscode_remote_setup/glibc-build/libc_pic.a(memset-avx512-unaligned-erms.os)
 .debug_info    0x00000000000788c8     0x2b73 /home/holy/vscode_remote_setup/glibc-build/libc_pic.a(cacheinfo.os)
 .debug_info    0x000000000007b43b      0x662 /home/holy/vscode_remote_setup/glibc-build/libc_pic.a(closedir.os)
 .debug_info    0x000000000007ba9d      0x67b /home/holy/vscode_remote_setup/glibc-build/libc_pic.a(rewinddir.os)
 .debug_info    0x000000000007c118      0x764 /home/holy/vscode_remote_setup/glibc-build/libc_pic.a(readdir64.os)
 .debug_info    0x000000000007c87c      0x81c /home/holy/vscode_remote_setup/glibc-build/libc_pic.a(fdopendir.os)
 .debug_info    0x000000000007d098       0x83 /home/holy/vscode_remote_setup/glibc-build/libc_pic.a(uname.os)
 .debug_info    0x000000000007d11b      0x5f5 /home/holy/vscode_remote_setup/glibc-build/libc_pic.a(_exit.os)
 .debug_info    0x000000000007d710       0x83 /home/holy/vscode_remote_setup/glibc-build/libc_pic.a(getpid.os)
 .debug_info    0x000000000007d793       0xbd /home/holy/vscode_remote_setup/glibc-build/libc_pic.a(environ.os)
 .debug_info    0x000000000007d850      0x760 /home/holy/vscode_remote_setup/glibc-build/libc_pic.a(xstat.os)
 .debug_info    0x000000000007dfb0      0x75f /home/holy/vscode_remote_setup/glibc-build/libc_pic.a(fxstat.os)
 .debug_info    0x000000000007e70f      0x760 /home/holy/vscode_remote_setup/glibc-build/libc_pic.a(lxstat.os)
 .debug_info    0x000000000007ee6f      0x610 /home/holy/vscode_remote_setup/glibc-build/libc_pic.a(lseek64.os)
 .debug_info    0x000000000007f47f      0x678 /home/holy/vscode_remote_setup/glibc-build/libc_pic.a(access.os)
 .debug_info    0x000000000007faf7      0x654 /home/holy/vscode_remote_setup/glibc-build/libc_pic.a(close_nocancel.os)
 .debug_info    0x000000000008014b      0x8cc /home/holy/vscode_remote_setup/glibc-build/libc_pic.a(fcntl_nocancel.os)
 .debug_info    0x0000000000080a17      0x65b /home/holy/vscode_remote_setup/glibc-build/libc_pic.a(open64_nocancel.os)
 .debug_info    0x0000000000081072      0x723 /home/holy/vscode_remote_setup/glibc-build/libc_pic.a(openat64_nocancel.os)
 .debug_info    0x0000000000081795      0x6c7 /home/holy/vscode_remote_setup/glibc-build/libc_pic.a(read_nocancel.os)
 .debug_info    0x0000000000081e5c      0x6ce /home/holy/vscode_remote_setup/glibc-build/libc_pic.a(write_nocancel.os)
 .debug_info    0x000000000008252a     0x1e00 /home/holy/vscode_remote_setup/glibc-build/libc_pic.a(mmap64.os)
 .debug_info    0x000000000008432a       0x82 /home/holy/vscode_remote_setup/glibc-build/libc_pic.a(munmap.os)
 .debug_info    0x00000000000843ac       0x82 /home/holy/vscode_remote_setup/glibc-build/libc_pic.a(mprotect.os)
 .debug_info    0x000000000008442e      0xf7e /home/holy/vscode_remote_setup/glibc-build/libc_pic.a(profil.os)
 .debug_info    0x00000000000853ac     0x1aa4 /home/holy/vscode_remote_setup/glibc-build/libc_pic.a(prof-freq.os)
 .debug_info    0x0000000000086e50       0x90 /home/holy/vscode_remote_setup/glibc-build/libc_pic.a(libc-lowlevellock.os)
 .debug_info    0x0000000000086ee0      0x60f /home/holy/vscode_remote_setup/glibc-build/libc_pic.a(libc_multiple_threads.os)
 .debug_info    0x00000000000874ef      0xe99 /home/holy/vscode_remote_setup/glibc-build/libc_pic.a(dl-addr-obj.os)
 .debug_info    0x0000000000088388      0xa87 /home/holy/vscode_remote_setup/glibc-build/libc_pic.a(sigaction.os)
 .debug_info    0x0000000000088e0f       0x82 /home/holy/vscode_remote_setup/glibc-build/libc_pic.a(setitimer.os)
 .debug_info    0x0000000000088e91      0x621 /home/holy/vscode_remote_setup/glibc-build/libc_pic.a(getdents64.os)

.debug_abbrev   0x0000000000000000     0xf003
 *(.debug_abbrev)
 .debug_abbrev  0x0000000000000000     0x90f7 /home/holy/vscode_remote_setup/glibc-build/elf/dl-allobjs.os
 .debug_abbrev  0x00000000000090f7      0x219 /home/holy/vscode_remote_setup/glibc-build/libc_pic.a(check_fds.os)
 .debug_abbrev  0x0000000000009310      0x10d /home/holy/vscode_remote_setup/glibc-build/libc_pic.a(errno.os)
 .debug_abbrev  0x000000000000941d       0x14 /home/holy/vscode_remote_setup/glibc-build/libc_pic.a(setjmp.os)
 .debug_abbrev  0x0000000000009431       0x14 /home/holy/vscode_remote_setup/glibc-build/libc_pic.a(__longjmp.os)
 .debug_abbrev  0x0000000000009445      0x23a /home/holy/vscode_remote_setup/glibc-build/libc_pic.a(scratch_buffer_set_array_size.os)
 .debug_abbrev  0x000000000000967f      0x284 /home/holy/vscode_remote_setup/glibc-build/libc_pic.a(strchr.os)
 .debug_abbrev  0x0000000000009903      0x284 /home/holy/vscode_remote_setup/glibc-build/libc_pic.a(strcmp.os)
 .debug_abbrev  0x0000000000009b87      0x284 /home/holy/vscode_remote_setup/glibc-build/libc_pic.a(strcspn.os)
 .debug_abbrev  0x0000000000009e0b      0x134 /home/holy/vscode_remote_setup/glibc-build/libc_pic.a(strdup.os)
 .debug_abbrev  0x0000000000009f3f      0x284 /home/holy/vscode_remote_setup/glibc-build/libc_pic.a(strlen.os)
 .debug_abbrev  0x000000000000a1c3      0x284 /home/holy/vscode_remote_setup/glibc-build/libc_pic.a(strnlen.os)
 .debug_abbrev  0x000000000000a447      0x284 /home/holy/vscode_remote_setup/glibc-build/libc_pic.a(strncmp.os)
 .debug_abbrev  0x000000000000a6cb      0x284 /home/holy/vscode_remote_setup/glibc-build/libc_pic.a(memchr.os)
 .debug_abbrev  0x000000000000a94f      0x284 /home/holy/vscode_remote_setup/glibc-build/libc_pic.a(memcmp.os)
 .debug_abbrev  0x000000000000abd3      0x284 /home/holy/vscode_remote_setup/glibc-build/libc_pic.a(memmove.os)
 .debug_abbrev  0x000000000000ae57      0x284 /home/holy/vscode_remote_setup/glibc-build/libc_pic.a(memset.os)
 .debug_abbrev  0x000000000000b0db      0x284 /home/holy/vscode_remote_setup/glibc-build/libc_pic.a(mempcpy.os)
 .debug_abbrev  0x000000000000b35f      0x284 /home/holy/vscode_remote_setup/glibc-build/libc_pic.a(stpcpy.os)
 .debug_abbrev  0x000000000000b5e3      0x284 /home/holy/vscode_remote_setup/glibc-build/libc_pic.a(memcpy.os)
 .debug_abbrev  0x000000000000b867      0x284 /home/holy/vscode_remote_setup/glibc-build/libc_pic.a(rawmemchr.os)
 .debug_abbrev  0x000000000000baeb       0x14 /home/holy/vscode_remote_setup/glibc-build/libc_pic.a(strcmp-sse2.os)
 .debug_abbrev  0x000000000000baff       0x14 /home/holy/vscode_remote_setup/glibc-build/libc_pic.a(strcmp-sse2-unaligned.os)
 .debug_abbrev  0x000000000000bb13       0x14 /home/holy/vscode_remote_setup/glibc-build/libc_pic.a(strcmp-ssse3.os)
 .debug_abbrev  0x000000000000bb27       0x14 /home/holy/vscode_remote_setup/glibc-build/libc_pic.a(strcmp-avx2.os)
 .debug_abbrev  0x000000000000bb3b       0x14 /home/holy/vscode_remote_setup/glibc-build/libc_pic.a(strncmp-sse2.os)
 .debug_abbrev  0x000000000000bb4f       0x14 /home/holy/vscode_remote_setup/glibc-build/libc_pic.a(strncmp-ssse3.os)
 .debug_abbrev  0x000000000000bb63       0x14 /home/holy/vscode_remote_setup/glibc-build/libc_pic.a(strncmp-sse4_2.os)
 .debug_abbrev  0x000000000000bb77       0x14 /home/holy/vscode_remote_setup/glibc-build/libc_pic.a(strncmp-avx2.os)
 .debug_abbrev  0x000000000000bb8b       0x14 /home/holy/vscode_remote_setup/glibc-build/libc_pic.a(memchr-sse2.os)
 .debug_abbrev  0x000000000000bb9f       0x14 /home/holy/vscode_remote_setup/glibc-build/libc_pic.a(rawmemchr-sse2.os)
 .debug_abbrev  0x000000000000bbb3       0x14 /home/holy/vscode_remote_setup/glibc-build/libc_pic.a(memchr-avx2.os)
 .debug_abbrev  0x000000000000bbc7       0x14 /home/holy/vscode_remote_setup/glibc-build/libc_pic.a(rawmemchr-avx2.os)
 .debug_abbrev  0x000000000000bbdb       0x14 /home/holy/vscode_remote_setup/glibc-build/libc_pic.a(memcmp-sse2.os)
 .debug_abbrev  0x000000000000bbef       0x14 /home/holy/vscode_remote_setup/glibc-build/libc_pic.a(memcmp-avx2-movbe.os)
 .debug_abbrev  0x000000000000bc03       0x14 /home/holy/vscode_remote_setup/glibc-build/libc_pic.a(memcmp-sse4.os)
 .debug_abbrev  0x000000000000bc17       0x14 /home/holy/vscode_remote_setup/glibc-build/libc_pic.a(memcpy-ssse3.os)
 .debug_abbrev  0x000000000000bc2b       0x14 /home/holy/vscode_remote_setup/glibc-build/libc_pic.a(memmove-ssse3.os)
 .debug_abbrev  0x000000000000bc3f       0x14 /home/holy/vscode_remote_setup/glibc-build/libc_pic.a(memcpy-ssse3-back.os)
 .debug_abbrev  0x000000000000bc53       0x14 /home/holy/vscode_remote_setup/glibc-build/libc_pic.a(memmove-ssse3-back.os)
 .debug_abbrev  0x000000000000bc67       0x14 /home/holy/vscode_remote_setup/glibc-build/libc_pic.a(memmove-avx512-no-vzeroupper.os)
 .debug_abbrev  0x000000000000bc7b       0x14 /home/holy/vscode_remote_setup/glibc-build/libc_pic.a(strchr-sse2.os)
 .debug_abbrev  0x000000000000bc8f       0x14 /home/holy/vscode_remote_setup/glibc-build/libc_pic.a(strchr-avx2.os)
 .debug_abbrev  0x000000000000bca3       0x14 /home/holy/vscode_remote_setup/glibc-build/libc_pic.a(strlen-sse2.os)
 .debug_abbrev  0x000000000000bcb7       0x14 /home/holy/vscode_remote_setup/glibc-build/libc_pic.a(strnlen-sse2.os)
 .debug_abbrev  0x000000000000bccb       0x14 /home/holy/vscode_remote_setup/glibc-build/libc_pic.a(strlen-avx2.os)
 .debug_abbrev  0x000000000000bcdf       0x14 /home/holy/vscode_remote_setup/glibc-build/libc_pic.a(strnlen-avx2.os)
 .debug_abbrev  0x000000000000bcf3       0x14 /home/holy/vscode_remote_setup/glibc-build/libc_pic.a(stpcpy-sse2.os)
 .debug_abbrev  0x000000000000bd07       0x14 /home/holy/vscode_remote_setup/glibc-build/libc_pic.a(stpcpy-ssse3.os)
 .debug_abbrev  0x000000000000bd1b       0x14 /home/holy/vscode_remote_setup/glibc-build/libc_pic.a(stpcpy-sse2-unaligned.os)
 .debug_abbrev  0x000000000000bd2f       0x14 /home/holy/vscode_remote_setup/glibc-build/libc_pic.a(strchr-sse2-no-bsf.os)
 .debug_abbrev  0x000000000000bd43       0x14 /home/holy/vscode_remote_setup/glibc-build/libc_pic.a(memcmp-ssse3.os)
 .debug_abbrev  0x000000000000bd57       0x14 /home/holy/vscode_remote_setup/glibc-build/libc_pic.a(strcspn-sse2.os)
 .debug_abbrev  0x000000000000bd6b      0x203 /home/holy/vscode_remote_setup/glibc-build/libc_pic.a(strcspn-c.os)
 .debug_abbrev  0x000000000000bf6e       0xad /home/holy/vscode_remote_setup/glibc-build/libc_pic.a(varshift.os)
 .debug_abbrev  0x000000000000c01b       0x14 /home/holy/vscode_remote_setup/glibc-build/libc_pic.a(memset-avx512-no-vzeroupper.os)
 .debug_abbrev  0x000000000000c02f       0x14 /home/holy/vscode_remote_setup/glibc-build/libc_pic.a(memmove-sse2-unaligned-erms.os)
 .debug_abbrev  0x000000000000c043       0x14 /home/holy/vscode_remote_setup/glibc-build/libc_pic.a(memmove-avx-unaligned-erms.os)
 .debug_abbrev  0x000000000000c057       0x14 /home/holy/vscode_remote_setup/glibc-build/libc_pic.a(memmove-avx512-unaligned-erms.os)
 .debug_abbrev  0x000000000000c06b       0x14 /home/holy/vscode_remote_setup/glibc-build/libc_pic.a(memset-sse2-unaligned-erms.os)
 .debug_abbrev  0x000000000000c07f       0x14 /home/holy/vscode_remote_setup/glibc-build/libc_pic.a(memset-avx2-unaligned-erms.os)
 .debug_abbrev  0x000000000000c093       0x14 /home/holy/vscode_remote_setup/glibc-build/libc_pic.a(memset-avx512-unaligned-erms.os)
 .debug_abbrev  0x000000000000c0a7      0x473 /home/holy/vscode_remote_setup/glibc-build/libc_pic.a(cacheinfo.os)
 .debug_abbrev  0x000000000000c51a      0x1b2 /home/holy/vscode_remote_setup/glibc-build/libc_pic.a(closedir.os)
 .debug_abbrev  0x000000000000c6cc      0x192 /home/holy/vscode_remote_setup/glibc-build/libc_pic.a(rewinddir.os)
 .debug_abbrev  0x000000000000c85e      0x1d5 /home/holy/vscode_remote_setup/glibc-build/libc_pic.a(readdir64.os)
 .debug_abbrev  0x000000000000ca33      0x1be /home/holy/vscode_remote_setup/glibc-build/libc_pic.a(fdopendir.os)
 .debug_abbrev  0x000000000000cbf1       0x14 /home/holy/vscode_remote_setup/glibc-build/libc_pic.a(uname.os)
 .debug_abbrev  0x000000000000cc05      0x185 /home/holy/vscode_remote_setup/glibc-build/libc_pic.a(_exit.os)
 .debug_abbrev  0x000000000000cd8a       0x14 /home/holy/vscode_remote_setup/glibc-build/libc_pic.a(getpid.os)
 .debug_abbrev  0x000000000000cd9e       0x40 /home/holy/vscode_remote_setup/glibc-build/libc_pic.a(environ.os)
 .debug_abbrev  0x000000000000cdde      0x17b /home/holy/vscode_remote_setup/glibc-build/libc_pic.a(xstat.os)
 .debug_abbrev  0x000000000000cf59      0x17b /home/holy/vscode_remote_setup/glibc-build/libc_pic.a(fxstat.os)
 .debug_abbrev  0x000000000000d0d4      0x17b /home/holy/vscode_remote_setup/glibc-build/libc_pic.a(lxstat.os)
 .debug_abbrev  0x000000000000d24f      0x197 /home/holy/vscode_remote_setup/glibc-build/libc_pic.a(lseek64.os)
 .debug_abbrev  0x000000000000d3e6      0x1a8 /home/holy/vscode_remote_setup/glibc-build/libc_pic.a(access.os)
 .debug_abbrev  0x000000000000d58e      0x1aa /home/holy/vscode_remote_setup/glibc-build/libc_pic.a(close_nocancel.os)
 .debug_abbrev  0x000000000000d738      0x263 /home/holy/vscode_remote_setup/glibc-build/libc_pic.a(fcntl_nocancel.os)
 .debug_abbrev  0x000000000000d99b      0x17e /home/holy/vscode_remote_setup/glibc-build/libc_pic.a(open64_nocancel.os)
 .debug_abbrev  0x000000000000db19      0x1cb /home/holy/vscode_remote_setup/glibc-build/libc_pic.a(openat64_nocancel.os)
 .debug_abbrev  0x000000000000dce4      0x1b9 /home/holy/vscode_remote_setup/glibc-build/libc_pic.a(read_nocancel.os)
 .debug_abbrev  0x000000000000de9d      0x1be /home/holy/vscode_remote_setup/glibc-build/libc_pic.a(write_nocancel.os)
 .debug_abbrev  0x000000000000e05b      0x2f2 /home/holy/vscode_remote_setup/glibc-build/libc_pic.a(mmap64.os)
 .debug_abbrev  0x000000000000e34d       0x14 /home/holy/vscode_remote_setup/glibc-build/libc_pic.a(munmap.os)
 .debug_abbrev  0x000000000000e361       0x14 /home/holy/vscode_remote_setup/glibc-build/libc_pic.a(mprotect.os)
 .debug_abbrev  0x000000000000e375      0x307 /home/holy/vscode_remote_setup/glibc-build/libc_pic.a(profil.os)
 .debug_abbrev  0x000000000000e67c      0x25e /home/holy/vscode_remote_setup/glibc-build/libc_pic.a(prof-freq.os)
 .debug_abbrev  0x000000000000e8da       0x14 /home/holy/vscode_remote_setup/glibc-build/libc_pic.a(libc-lowlevellock.os)
 .debug_abbrev  0x000000000000e8ee      0x154 /home/holy/vscode_remote_setup/glibc-build/libc_pic.a(libc_multiple_threads.os)
 .debug_abbrev  0x000000000000ea42      0x205 /home/holy/vscode_remote_setup/glibc-build/libc_pic.a(dl-addr-obj.os)
 .debug_abbrev  0x000000000000ec47      0x220 /home/holy/vscode_remote_setup/glibc-build/libc_pic.a(sigaction.os)
 .debug_abbrev  0x000000000000ee67       0x14 /home/holy/vscode_remote_setup/glibc-build/libc_pic.a(setitimer.os)
 .debug_abbrev  0x000000000000ee7b      0x188 /home/holy/vscode_remote_setup/glibc-build/libc_pic.a(getdents64.os)

.debug_line     0x0000000000000000    0x19cb6
 *(.debug_line .debug_line.* .debug_line_end)
 .debug_line    0x0000000000000000     0xcca2 /home/holy/vscode_remote_setup/glibc-build/elf/dl-allobjs.os
 .debug_line    0x000000000000cca2      0x22e /home/holy/vscode_remote_setup/glibc-build/libc_pic.a(check_fds.os)
 .debug_line    0x000000000000ced0      0x11f /home/holy/vscode_remote_setup/glibc-build/libc_pic.a(errno.os)
 .debug_line    0x000000000000cfef       0x60 /home/holy/vscode_remote_setup/glibc-build/libc_pic.a(setjmp.os)
 .debug_line    0x000000000000d04f       0x61 /home/holy/vscode_remote_setup/glibc-build/libc_pic.a(__longjmp.os)
 .debug_line    0x000000000000d0b0      0x1fc /home/holy/vscode_remote_setup/glibc-build/libc_pic.a(scratch_buffer_set_array_size.os)
 .debug_line    0x000000000000d2ac      0x2a7 /home/holy/vscode_remote_setup/glibc-build/libc_pic.a(strchr.os)
 .debug_line    0x000000000000d553      0x2aa /home/holy/vscode_remote_setup/glibc-build/libc_pic.a(strcmp.os)
 .debug_line    0x000000000000d7fd      0x2b8 /home/holy/vscode_remote_setup/glibc-build/libc_pic.a(strcspn.os)
 .debug_line    0x000000000000dab5       0xb1 /home/holy/vscode_remote_setup/glibc-build/libc_pic.a(strdup.os)
 .debug_line    0x000000000000db66      0x2b9 /home/holy/vscode_remote_setup/glibc-build/libc_pic.a(strlen.os)
 .debug_line    0x000000000000de1f      0x2b8 /home/holy/vscode_remote_setup/glibc-build/libc_pic.a(strnlen.os)
 .debug_line    0x000000000000e0d7      0x2ac /home/holy/vscode_remote_setup/glibc-build/libc_pic.a(strncmp.os)
 .debug_line    0x000000000000e383      0x2b9 /home/holy/vscode_remote_setup/glibc-build/libc_pic.a(memchr.os)
 .debug_line    0x000000000000e63c      0x2ca /home/holy/vscode_remote_setup/glibc-build/libc_pic.a(memcmp.os)
 .debug_line    0x000000000000e906      0x2d5 /home/holy/vscode_remote_setup/glibc-build/libc_pic.a(memmove.os)
 .debug_line    0x000000000000ebdb      0x2c9 /home/holy/vscode_remote_setup/glibc-build/libc_pic.a(memset.os)
 .debug_line    0x000000000000eea4      0x2d5 /home/holy/vscode_remote_setup/glibc-build/libc_pic.a(mempcpy.os)
 .debug_line    0x000000000000f179      0x2c5 /home/holy/vscode_remote_setup/glibc-build/libc_pic.a(stpcpy.os)
 .debug_line    0x000000000000f43e      0x2d4 /home/holy/vscode_remote_setup/glibc-build/libc_pic.a(memcpy.os)
 .debug_line    0x000000000000f712      0x2ba /home/holy/vscode_remote_setup/glibc-build/libc_pic.a(rawmemchr.os)
 .debug_line    0x000000000000f9cc      0x48f /home/holy/vscode_remote_setup/glibc-build/libc_pic.a(strcmp-sse2.os)
 .debug_line    0x000000000000fe5b      0x10c /home/holy/vscode_remote_setup/glibc-build/libc_pic.a(strcmp-sse2-unaligned.os)
 .debug_line    0x000000000000ff67      0x45f /home/holy/vscode_remote_setup/glibc-build/libc_pic.a(strcmp-ssse3.os)
 .debug_line    0x00000000000103c6      0x192 /home/holy/vscode_remote_setup/glibc-build/libc_pic.a(strcmp-avx2.os)
 .debug_line    0x0000000000010558      0x525 /home/holy/vscode_remote_setup/glibc-build/libc_pic.a(strncmp-sse2.os)
 .debug_line    0x0000000000010a7d      0x4e9 /home/holy/vscode_remote_setup/glibc-build/libc_pic.a(strncmp-ssse3.os)
 .debug_line    0x0000000000010f66      0x398 /home/holy/vscode_remote_setup/glibc-build/libc_pic.a(strncmp-sse4_2.os)
 .debug_line    0x00000000000112fe      0x1c0 /home/holy/vscode_remote_setup/glibc-build/libc_pic.a(strncmp-avx2.os)
 .debug_line    0x00000000000114be      0x124 /home/holy/vscode_remote_setup/glibc-build/libc_pic.a(memchr-sse2.os)
 .debug_line    0x00000000000115e2       0xd3 /home/holy/vscode_remote_setup/glibc-build/libc_pic.a(rawmemchr-sse2.os)
 .debug_line    0x00000000000116b5      0x10c /home/holy/vscode_remote_setup/glibc-build/libc_pic.a(memchr-avx2.os)
 .debug_line    0x00000000000117c1       0xc0 /home/holy/vscode_remote_setup/glibc-build/libc_pic.a(rawmemchr-avx2.os)
 .debug_line    0x0000000000011881      0x14c /home/holy/vscode_remote_setup/glibc-build/libc_pic.a(memcmp-sse2.os)
 .debug_line    0x00000000000119cd      0x146 /home/holy/vscode_remote_setup/glibc-build/libc_pic.a(memcmp-avx2-movbe.os)
 .debug_line    0x0000000000011b13      0x500 /home/holy/vscode_remote_setup/glibc-build/libc_pic.a(memcmp-sse4.os)
 .debug_line    0x0000000000012013      0x947 /home/holy/vscode_remote_setup/glibc-build/libc_pic.a(memcpy-ssse3.os)
 .debug_line    0x000000000001295a      0x99b /home/holy/vscode_remote_setup/glibc-build/libc_pic.a(memmove-ssse3.os)
 .debug_line    0x00000000000132f5      0x87d /home/holy/vscode_remote_setup/glibc-build/libc_pic.a(memcpy-ssse3-back.os)
 .debug_line    0x0000000000013b72      0x882 /home/holy/vscode_remote_setup/glibc-build/libc_pic.a(memmove-ssse3-back.os)
 .debug_line    0x00000000000143f4      0x1b3 /home/holy/vscode_remote_setup/glibc-build/libc_pic.a(memmove-avx512-no-vzeroupper.os)
 .debug_line    0x00000000000145a7       0xde /home/holy/vscode_remote_setup/glibc-build/libc_pic.a(strchr-sse2.os)
 .debug_line    0x0000000000014685       0xe0 /home/holy/vscode_remote_setup/glibc-build/libc_pic.a(strchr-avx2.os)
 .debug_line    0x0000000000014765       0xa5 /home/holy/vscode_remote_setup/glibc-build/libc_pic.a(strlen-sse2.os)
 .debug_line    0x000000000001480a       0xa5 /home/holy/vscode_remote_setup/glibc-build/libc_pic.a(strnlen-sse2.os)
 .debug_line    0x00000000000148af       0xc9 /home/holy/vscode_remote_setup/glibc-build/libc_pic.a(strlen-avx2.os)
 .debug_line    0x0000000000014978      0x11c /home/holy/vscode_remote_setup/glibc-build/libc_pic.a(strnlen-avx2.os)
 .debug_line    0x0000000000014a94       0x95 /home/holy/vscode_remote_setup/glibc-build/libc_pic.a(stpcpy-sse2.os)
 .debug_line    0x0000000000014b29      0x627 /home/holy/vscode_remote_setup/glibc-build/libc_pic.a(stpcpy-ssse3.os)
 .debug_line    0x0000000000015150      0x1e2 /home/holy/vscode_remote_setup/glibc-build/libc_pic.a(stpcpy-sse2-unaligned.os)
 .debug_line    0x0000000000015332      0x111 /home/holy/vscode_remote_setup/glibc-build/libc_pic.a(strchr-sse2-no-bsf.os)
 .debug_line    0x0000000000015443      0x5cd /home/holy/vscode_remote_setup/glibc-build/libc_pic.a(memcmp-ssse3.os)
 .debug_line    0x0000000000015a10       0x80 /home/holy/vscode_remote_setup/glibc-build/libc_pic.a(strcspn-sse2.os)
 .debug_line    0x0000000000015a90      0x1f3 /home/holy/vscode_remote_setup/glibc-build/libc_pic.a(strcspn-c.os)
 .debug_line    0x0000000000015c83       0x90 /home/holy/vscode_remote_setup/glibc-build/libc_pic.a(varshift.os)
 .debug_line    0x0000000000015d13       0xeb /home/holy/vscode_remote_setup/glibc-build/libc_pic.a(memset-avx512-no-vzeroupper.os)
 .debug_line    0x0000000000015dfe      0x16a /home/holy/vscode_remote_setup/glibc-build/libc_pic.a(memmove-sse2-unaligned-erms.os)
 .debug_line    0x0000000000015f68      0x160 /home/holy/vscode_remote_setup/glibc-build/libc_pic.a(memmove-avx-unaligned-erms.os)
 .debug_line    0x00000000000160c8      0x16a /home/holy/vscode_remote_setup/glibc-build/libc_pic.a(memmove-avx512-unaligned-erms.os)
 .debug_line    0x0000000000016232       0xd1 /home/holy/vscode_remote_setup/glibc-build/libc_pic.a(memset-sse2-unaligned-erms.os)
 .debug_line    0x0000000000016303       0xd3 /home/holy/vscode_remote_setup/glibc-build/libc_pic.a(memset-avx2-unaligned-erms.os)
 .debug_line    0x00000000000163d6       0xd8 /home/holy/vscode_remote_setup/glibc-build/libc_pic.a(memset-avx512-unaligned-erms.os)
 .debug_line    0x00000000000164ae      0x5f6 /home/holy/vscode_remote_setup/glibc-build/libc_pic.a(cacheinfo.os)
 .debug_line    0x0000000000016aa4      0x232 /home/holy/vscode_remote_setup/glibc-build/libc_pic.a(closedir.os)
 .debug_line    0x0000000000016cd6      0x1f2 /home/holy/vscode_remote_setup/glibc-build/libc_pic.a(rewinddir.os)
 .debug_line    0x0000000000016ec8      0x238 /home/holy/vscode_remote_setup/glibc-build/libc_pic.a(readdir64.os)
 .debug_line    0x0000000000017100      0x2a2 /home/holy/vscode_remote_setup/glibc-build/libc_pic.a(fdopendir.os)
 .debug_line    0x00000000000173a2       0x58 /home/holy/vscode_remote_setup/glibc-build/libc_pic.a(uname.os)
 .debug_line    0x00000000000173fa      0x176 /home/holy/vscode_remote_setup/glibc-build/libc_pic.a(_exit.os)
 .debug_line    0x0000000000017570       0x57 /home/holy/vscode_remote_setup/glibc-build/libc_pic.a(getpid.os)
 .debug_line    0x00000000000175c7       0x2a /home/holy/vscode_remote_setup/glibc-build/libc_pic.a(environ.os)
 .debug_line    0x00000000000175f1      0x1c9 /home/holy/vscode_remote_setup/glibc-build/libc_pic.a(xstat.os)
 .debug_line    0x00000000000177ba      0x1ca /home/holy/vscode_remote_setup/glibc-build/libc_pic.a(fxstat.os)
 .debug_line    0x0000000000017984      0x1ca /home/holy/vscode_remote_setup/glibc-build/libc_pic.a(lxstat.os)
 .debug_line    0x0000000000017b4e      0x180 /home/holy/vscode_remote_setup/glibc-build/libc_pic.a(lseek64.os)
 .debug_line    0x0000000000017cce      0x1bb /home/holy/vscode_remote_setup/glibc-build/libc_pic.a(access.os)
 .debug_line    0x0000000000017e89      0x1c3 /home/holy/vscode_remote_setup/glibc-build/libc_pic.a(close_nocancel.os)
 .debug_line    0x000000000001804c      0x21d /home/holy/vscode_remote_setup/glibc-build/libc_pic.a(fcntl_nocancel.os)
 .debug_line    0x0000000000018269      0x1c2 /home/holy/vscode_remote_setup/glibc-build/libc_pic.a(open64_nocancel.os)
 .debug_line    0x000000000001842b      0x225 /home/holy/vscode_remote_setup/glibc-build/libc_pic.a(openat64_nocancel.os)
 .debug_line    0x0000000000018650      0x20b /home/holy/vscode_remote_setup/glibc-build/libc_pic.a(read_nocancel.os)
 .debug_line    0x000000000001885b      0x20c /home/holy/vscode_remote_setup/glibc-build/libc_pic.a(write_nocancel.os)
 .debug_line    0x0000000000018a67      0x2da /home/holy/vscode_remote_setup/glibc-build/libc_pic.a(mmap64.os)
 .debug_line    0x0000000000018d41       0x58 /home/holy/vscode_remote_setup/glibc-build/libc_pic.a(munmap.os)
 .debug_line    0x0000000000018d99       0x58 /home/holy/vscode_remote_setup/glibc-build/libc_pic.a(mprotect.os)
 .debug_line    0x0000000000018df1      0x34d /home/holy/vscode_remote_setup/glibc-build/libc_pic.a(profil.os)
 .debug_line    0x000000000001913e      0x2a2 /home/holy/vscode_remote_setup/glibc-build/libc_pic.a(prof-freq.os)
 .debug_line    0x00000000000193e0       0x80 /home/holy/vscode_remote_setup/glibc-build/libc_pic.a(libc-lowlevellock.os)
 .debug_line    0x0000000000019460      0x187 /home/holy/vscode_remote_setup/glibc-build/libc_pic.a(libc_multiple_threads.os)
 .debug_line    0x00000000000195e7      0x230 /home/holy/vscode_remote_setup/glibc-build/libc_pic.a(dl-addr-obj.os)
 .debug_line    0x0000000000019817      0x28d /home/holy/vscode_remote_setup/glibc-build/libc_pic.a(sigaction.os)
 .debug_line    0x0000000000019aa4       0x58 /home/holy/vscode_remote_setup/glibc-build/libc_pic.a(setitimer.os)
 .debug_line    0x0000000000019afc      0x1ba /home/holy/vscode_remote_setup/glibc-build/libc_pic.a(getdents64.os)

.debug_frame
 *(.debug_frame)

.debug_str      0x0000000000000000    0x5499e
 *(.debug_str)
 .debug_str     0x0000000000000000    0x35bc0 /home/holy/vscode_remote_setup/glibc-build/elf/dl-allobjs.os
 .debug_str     0x0000000000035bc0      0x6bb /home/holy/vscode_remote_setup/glibc-build/libc_pic.a(check_fds.os)
 .debug_str     0x000000000003627b      0x4da /home/holy/vscode_remote_setup/glibc-build/libc_pic.a(errno.os)
 .debug_str     0x0000000000036755      0x5ee /home/holy/vscode_remote_setup/glibc-build/libc_pic.a(scratch_buffer_set_array_size.os)
 .debug_str     0x0000000000036d43     0x124a /home/holy/vscode_remote_setup/glibc-build/libc_pic.a(strchr.os)
 .debug_str     0x0000000000037f8d     0x12a7 /home/holy/vscode_remote_setup/glibc-build/libc_pic.a(strcmp.os)
 .debug_str     0x0000000000039234     0x12aa /home/holy/vscode_remote_setup/glibc-build/libc_pic.a(strcspn.os)
 .debug_str     0x000000000003a4de      0x234 /home/holy/vscode_remote_setup/glibc-build/libc_pic.a(strdup.os)
 .debug_str     0x000000000003a712     0x124a /home/holy/vscode_remote_setup/glibc-build/libc_pic.a(strlen.os)
 .debug_str     0x000000000003b95c     0x124f /home/holy/vscode_remote_setup/glibc-build/libc_pic.a(strnlen.os)
 .debug_str     0x000000000003cbab     0x12aa /home/holy/vscode_remote_setup/glibc-build/libc_pic.a(strncmp.os)
 .debug_str     0x000000000003de55     0x124a /home/holy/vscode_remote_setup/glibc-build/libc_pic.a(memchr.os)
 .debug_str     0x000000000003f09f     0x12a7 /home/holy/vscode_remote_setup/glibc-build/libc_pic.a(memcmp.os)
 .debug_str     0x0000000000040346     0x12b1 /home/holy/vscode_remote_setup/glibc-build/libc_pic.a(memmove.os)
 .debug_str     0x00000000000415f7     0x12a7 /home/holy/vscode_remote_setup/glibc-build/libc_pic.a(memset.os)
 .debug_str     0x000000000004289e     0x12ac /home/holy/vscode_remote_setup/glibc-build/libc_pic.a(mempcpy.os)
 .debug_str     0x0000000000043b4a     0x12a9 /home/holy/vscode_remote_setup/glibc-build/libc_pic.a(stpcpy.os)
 .debug_str     0x0000000000044df3     0x12ad /home/holy/vscode_remote_setup/glibc-build/libc_pic.a(memcpy.os)
 .debug_str     0x00000000000460a0     0x1255 /home/holy/vscode_remote_setup/glibc-build/libc_pic.a(rawmemchr.os)
 .debug_str     0x00000000000472f5      0x327 /home/holy/vscode_remote_setup/glibc-build/libc_pic.a(strcspn-c.os)
 .debug_str     0x000000000004761c      0x233 /home/holy/vscode_remote_setup/glibc-build/libc_pic.a(varshift.os)
 .debug_str     0x000000000004784f     0x2461 /home/holy/vscode_remote_setup/glibc-build/libc_pic.a(cacheinfo.os)
 .debug_str     0x0000000000049cb0      0x582 /home/holy/vscode_remote_setup/glibc-build/libc_pic.a(closedir.os)
 .debug_str     0x000000000004a232      0x590 /home/holy/vscode_remote_setup/glibc-build/libc_pic.a(rewinddir.os)
 .debug_str     0x000000000004a7c2      0x612 /home/holy/vscode_remote_setup/glibc-build/libc_pic.a(readdir64.os)
 .debug_str     0x000000000004add4      0x6bd /home/holy/vscode_remote_setup/glibc-build/libc_pic.a(fdopendir.os)
 .debug_str     0x000000000004b491      0x51a /home/holy/vscode_remote_setup/glibc-build/libc_pic.a(_exit.os)
 .debug_str     0x000000000004b9ab      0x19b /home/holy/vscode_remote_setup/glibc-build/libc_pic.a(environ.os)
 .debug_str     0x000000000004bb46      0x63d /home/holy/vscode_remote_setup/glibc-build/libc_pic.a(xstat.os)
 .debug_str     0x000000000004c183      0x63b /home/holy/vscode_remote_setup/glibc-build/libc_pic.a(fxstat.os)
 .debug_str     0x000000000004c7be      0x640 /home/holy/vscode_remote_setup/glibc-build/libc_pic.a(lxstat.os)
 .debug_str     0x000000000004cdfe      0x539 /home/holy/vscode_remote_setup/glibc-build/libc_pic.a(lseek64.os)
 .debug_str     0x000000000004d337      0x59a /home/holy/vscode_remote_setup/glibc-build/libc_pic.a(access.os)
 .debug_str     0x000000000004d8d1      0x5af /home/holy/vscode_remote_setup/glibc-build/libc_pic.a(close_nocancel.os)
 .debug_str     0x000000000004de80      0x648 /home/holy/vscode_remote_setup/glibc-build/libc_pic.a(fcntl_nocancel.os)
 .debug_str     0x000000000004e4c8      0x56e /home/holy/vscode_remote_setup/glibc-build/libc_pic.a(open64_nocancel.os)
 .debug_str     0x000000000004ea36      0x604 /home/holy/vscode_remote_setup/glibc-build/libc_pic.a(openat64_nocancel.os)
 .debug_str     0x000000000004f03a      0x5da /home/holy/vscode_remote_setup/glibc-build/libc_pic.a(read_nocancel.os)
 .debug_str     0x000000000004f614      0x5dd /home/holy/vscode_remote_setup/glibc-build/libc_pic.a(write_nocancel.os)
 .debug_str     0x000000000004fbf1     0x129a /home/holy/vscode_remote_setup/glibc-build/libc_pic.a(mmap64.os)
 .debug_str     0x0000000000050e8b      0xa39 /home/holy/vscode_remote_setup/glibc-build/libc_pic.a(profil.os)
 .debug_str     0x00000000000518c4     0x1254 /home/holy/vscode_remote_setup/glibc-build/libc_pic.a(prof-freq.os)
 .debug_str     0x0000000000052b18      0x64a /home/holy/vscode_remote_setup/glibc-build/libc_pic.a(libc_multiple_threads.os)
 .debug_str     0x0000000000053162      0xb79 /home/holy/vscode_remote_setup/glibc-build/libc_pic.a(dl-addr-obj.os)
 .debug_str     0x0000000000053cdb      0x780 /home/holy/vscode_remote_setup/glibc-build/libc_pic.a(sigaction.os)
 .debug_str     0x000000000005445b      0x543 /home/holy/vscode_remote_setup/glibc-build/libc_pic.a(getdents64.os)

.debug_loc      0x0000000000000000    0x34249
 *(.debug_loc)
 .debug_loc     0x0000000000000000    0x2f4c5 /home/holy/vscode_remote_setup/glibc-build/elf/dl-allobjs.os
 .debug_loc     0x000000000002f4c5       0xe1 /home/holy/vscode_remote_setup/glibc-build/libc_pic.a(check_fds.os)
 .debug_loc     0x000000000002f5a6      0x3ab /home/holy/vscode_remote_setup/glibc-build/libc_pic.a(scratch_buffer_set_array_size.os)
 .debug_loc     0x000000000002f951      0x107 /home/holy/vscode_remote_setup/glibc-build/libc_pic.a(strdup.os)
 .debug_loc     0x000000000002fa58      0x594 /home/holy/vscode_remote_setup/glibc-build/libc_pic.a(strcspn-c.os)
 .debug_loc     0x000000000002ffec     0x1def /home/holy/vscode_remote_setup/glibc-build/libc_pic.a(cacheinfo.os)
 .debug_loc     0x0000000000031ddb       0x82 /home/holy/vscode_remote_setup/glibc-build/libc_pic.a(closedir.os)
 .debug_loc     0x0000000000031e5d       0x4c /home/holy/vscode_remote_setup/glibc-build/libc_pic.a(rewinddir.os)
 .debug_loc     0x0000000000031ea9      0x1d6 /home/holy/vscode_remote_setup/glibc-build/libc_pic.a(readdir64.os)
 .debug_loc     0x000000000003207f       0xbe /home/holy/vscode_remote_setup/glibc-build/libc_pic.a(fdopendir.os)
 .debug_loc     0x000000000003213d      0x148 /home/holy/vscode_remote_setup/glibc-build/libc_pic.a(_exit.os)
 .debug_loc     0x0000000000032285      0x1de /home/holy/vscode_remote_setup/glibc-build/libc_pic.a(xstat.os)
 .debug_loc     0x0000000000032463      0x1de /home/holy/vscode_remote_setup/glibc-build/libc_pic.a(fxstat.os)
 .debug_loc     0x0000000000032641      0x1de /home/holy/vscode_remote_setup/glibc-build/libc_pic.a(lxstat.os)
 .debug_loc     0x000000000003281f       0xe0 /home/holy/vscode_remote_setup/glibc-build/libc_pic.a(lseek64.os)
 .debug_loc     0x00000000000328ff       0x6e /home/holy/vscode_remote_setup/glibc-build/libc_pic.a(access.os)
 .debug_loc     0x000000000003296d       0x6e /home/holy/vscode_remote_setup/glibc-build/libc_pic.a(close_nocancel.os)
 .debug_loc     0x00000000000329db      0x36b /home/holy/vscode_remote_setup/glibc-build/libc_pic.a(fcntl_nocancel.os)
 .debug_loc     0x0000000000032d46      0x2c5 /home/holy/vscode_remote_setup/glibc-build/libc_pic.a(open64_nocancel.os)
 .debug_loc     0x000000000003300b      0x206 /home/holy/vscode_remote_setup/glibc-build/libc_pic.a(openat64_nocancel.os)
 .debug_loc     0x0000000000033211       0xe0 /home/holy/vscode_remote_setup/glibc-build/libc_pic.a(read_nocancel.os)
 .debug_loc     0x00000000000332f1       0xe0 /home/holy/vscode_remote_setup/glibc-build/libc_pic.a(write_nocancel.os)
 .debug_loc     0x00000000000333d1      0x6b8 /home/holy/vscode_remote_setup/glibc-build/libc_pic.a(mmap64.os)
 .debug_loc     0x0000000000033a89      0x2f6 /home/holy/vscode_remote_setup/glibc-build/libc_pic.a(profil.os)
 .debug_loc     0x0000000000033d7f       0x65 /home/holy/vscode_remote_setup/glibc-build/libc_pic.a(dl-addr-obj.os)
 .debug_loc     0x0000000000033de4      0x385 /home/holy/vscode_remote_setup/glibc-build/libc_pic.a(sigaction.os)
 .debug_loc     0x0000000000034169       0xe0 /home/holy/vscode_remote_setup/glibc-build/libc_pic.a(getdents64.os)

.debug_macinfo
 *(.debug_macinfo)

.debug_weaknames
 *(.debug_weaknames)

.debug_funcnames
 *(.debug_funcnames)

.debug_typenames
 *(.debug_typenames)

.debug_varnames
 *(.debug_varnames)

.debug_pubtypes
 *(.debug_pubtypes)

.debug_ranges   0x0000000000000000     0x83b0
 *(.debug_ranges)
 .debug_ranges  0x0000000000000000     0x7830 /home/holy/vscode_remote_setup/glibc-build/elf/dl-allobjs.os
 .debug_ranges  0x0000000000007830      0x200 /home/holy/vscode_remote_setup/glibc-build/libc_pic.a(strcspn-c.os)
 .debug_ranges  0x0000000000007a30      0x440 /home/holy/vscode_remote_setup/glibc-build/libc_pic.a(cacheinfo.os)
 .debug_ranges  0x0000000000007e70       0x30 /home/holy/vscode_remote_setup/glibc-build/libc_pic.a(rewinddir.os)
 .debug_ranges  0x0000000000007ea0       0xd0 /home/holy/vscode_remote_setup/glibc-build/libc_pic.a(readdir64.os)
 .debug_ranges  0x0000000000007f70       0x90 /home/holy/vscode_remote_setup/glibc-build/libc_pic.a(_exit.os)
 .debug_ranges  0x0000000000008000       0x30 /home/holy/vscode_remote_setup/glibc-build/libc_pic.a(xstat.os)
 .debug_ranges  0x0000000000008030       0x30 /home/holy/vscode_remote_setup/glibc-build/libc_pic.a(fxstat.os)
 .debug_ranges  0x0000000000008060       0x30 /home/holy/vscode_remote_setup/glibc-build/libc_pic.a(lxstat.os)
 .debug_ranges  0x0000000000008090       0x30 /home/holy/vscode_remote_setup/glibc-build/libc_pic.a(lseek64.os)
 .debug_ranges  0x00000000000080c0       0x30 /home/holy/vscode_remote_setup/glibc-build/libc_pic.a(access.os)
 .debug_ranges  0x00000000000080f0       0x30 /home/holy/vscode_remote_setup/glibc-build/libc_pic.a(close_nocancel.os)
 .debug_ranges  0x0000000000008120       0x60 /home/holy/vscode_remote_setup/glibc-build/libc_pic.a(fcntl_nocancel.os)
 .debug_ranges  0x0000000000008180       0x30 /home/holy/vscode_remote_setup/glibc-build/libc_pic.a(open64_nocancel.os)
 .debug_ranges  0x00000000000081b0       0x30 /home/holy/vscode_remote_setup/glibc-build/libc_pic.a(openat64_nocancel.os)
 .debug_ranges  0x00000000000081e0       0x30 /home/holy/vscode_remote_setup/glibc-build/libc_pic.a(read_nocancel.os)
 .debug_ranges  0x0000000000008210       0x30 /home/holy/vscode_remote_setup/glibc-build/libc_pic.a(write_nocancel.os)
 .debug_ranges  0x0000000000008240       0x90 /home/holy/vscode_remote_setup/glibc-build/libc_pic.a(mmap64.os)
 .debug_ranges  0x00000000000082d0       0xb0 /home/holy/vscode_remote_setup/glibc-build/libc_pic.a(sigaction.os)
 .debug_ranges  0x0000000000008380       0x30 /home/holy/vscode_remote_setup/glibc-build/libc_pic.a(getdents64.os)

.debug_macro
 *(.debug_macro)

.gnu.attributes
 *(.gnu.attributes)
OUTPUT(/home/holy/vscode_remote_setup/glibc-build/elf/librtld.map.o elf64-x86-64)
